
EndProject.elf:     file format elf32-avr

Sections:
Idx Name          Size      VMA       LMA       File off  Algn
  0 .data         00000a4a  00800100  00000d5c  00000df0  2**0
                  CONTENTS, ALLOC, LOAD, DATA
  1 .text         00000d5c  00000000  00000000  00000094  2**1
                  CONTENTS, ALLOC, LOAD, READONLY, CODE
  2 .bss          00000410  00800b4a  00800b4a  0000183a  2**0
                  ALLOC
  3 .comment      00000030  00000000  00000000  0000183a  2**0
                  CONTENTS, READONLY
  4 .note.gnu.avr.deviceinfo 0000003c  00000000  00000000  0000186c  2**2
                  CONTENTS, READONLY
  5 .debug_aranges 000001d8  00000000  00000000  000018a8  2**0
                  CONTENTS, READONLY, DEBUGGING
  6 .debug_info   00002b0b  00000000  00000000  00001a80  2**0
                  CONTENTS, READONLY, DEBUGGING
  7 .debug_abbrev 00000a94  00000000  00000000  0000458b  2**0
                  CONTENTS, READONLY, DEBUGGING
  8 .debug_line   000015a3  00000000  00000000  0000501f  2**0
                  CONTENTS, READONLY, DEBUGGING
  9 .debug_frame  00000704  00000000  00000000  000065c4  2**2
                  CONTENTS, READONLY, DEBUGGING
 10 .debug_str    00000884  00000000  00000000  00006cc8  2**0
                  CONTENTS, READONLY, DEBUGGING
 11 .debug_loc    000029b6  00000000  00000000  0000754c  2**0
                  CONTENTS, READONLY, DEBUGGING
 12 .debug_ranges 000001f8  00000000  00000000  00009f02  2**0
                  CONTENTS, READONLY, DEBUGGING

Disassembly of section .text:

00000000 <__vectors>:
   0:	ba c0       	rjmp	.+372    	; 0x176 <__ctors_end>
   2:	00 00       	nop
   4:	f0 c4       	rjmp	.+2528   	; 0x9e6 <__vector_1>
   6:	00 00       	nop
   8:	26 c6       	rjmp	.+3148   	; 0xc56 <__vector_2>
   a:	00 00       	nop
   c:	d1 c0       	rjmp	.+418    	; 0x1b0 <__bad_interrupt>
   e:	00 00       	nop
  10:	cf c0       	rjmp	.+414    	; 0x1b0 <__bad_interrupt>
  12:	00 00       	nop
  14:	cd c0       	rjmp	.+410    	; 0x1b0 <__bad_interrupt>
  16:	00 00       	nop
  18:	cb c0       	rjmp	.+406    	; 0x1b0 <__bad_interrupt>
  1a:	00 00       	nop
  1c:	c9 c0       	rjmp	.+402    	; 0x1b0 <__bad_interrupt>
  1e:	00 00       	nop
  20:	c7 c0       	rjmp	.+398    	; 0x1b0 <__bad_interrupt>
  22:	00 00       	nop
  24:	c5 c0       	rjmp	.+394    	; 0x1b0 <__bad_interrupt>
  26:	00 00       	nop
  28:	c3 c0       	rjmp	.+390    	; 0x1b0 <__bad_interrupt>
  2a:	00 00       	nop
  2c:	c1 c0       	rjmp	.+386    	; 0x1b0 <__bad_interrupt>
  2e:	00 00       	nop
  30:	bf c0       	rjmp	.+382    	; 0x1b0 <__bad_interrupt>
  32:	00 00       	nop
  34:	bd c0       	rjmp	.+378    	; 0x1b0 <__bad_interrupt>
  36:	00 00       	nop
  38:	bb c0       	rjmp	.+374    	; 0x1b0 <__bad_interrupt>
  3a:	00 00       	nop
  3c:	b9 c0       	rjmp	.+370    	; 0x1b0 <__bad_interrupt>
  3e:	00 00       	nop
  40:	09 c5       	rjmp	.+2578   	; 0xa54 <__vector_16>
  42:	00 00       	nop
  44:	b5 c0       	rjmp	.+362    	; 0x1b0 <__bad_interrupt>
  46:	00 00       	nop
  48:	b3 c0       	rjmp	.+358    	; 0x1b0 <__bad_interrupt>
  4a:	00 00       	nop
  4c:	b1 c0       	rjmp	.+354    	; 0x1b0 <__bad_interrupt>
  4e:	00 00       	nop
  50:	af c0       	rjmp	.+350    	; 0x1b0 <__bad_interrupt>
  52:	00 00       	nop
  54:	ad c0       	rjmp	.+346    	; 0x1b0 <__bad_interrupt>
  56:	00 00       	nop
  58:	ab c0       	rjmp	.+342    	; 0x1b0 <__bad_interrupt>
  5a:	00 00       	nop
  5c:	a9 c0       	rjmp	.+338    	; 0x1b0 <__bad_interrupt>
  5e:	00 00       	nop
  60:	a7 c0       	rjmp	.+334    	; 0x1b0 <__bad_interrupt>
  62:	00 00       	nop
  64:	a5 c0       	rjmp	.+330    	; 0x1b0 <__bad_interrupt>
  66:	00 00       	nop
  68:	a3 c0       	rjmp	.+326    	; 0x1b0 <__bad_interrupt>
  6a:	00 00       	nop
  6c:	a1 c0       	rjmp	.+322    	; 0x1b0 <__bad_interrupt>
  6e:	00 00       	nop
  70:	9f c0       	rjmp	.+318    	; 0x1b0 <__bad_interrupt>
  72:	00 00       	nop
  74:	9d c0       	rjmp	.+314    	; 0x1b0 <__bad_interrupt>
  76:	00 00       	nop
  78:	9b c0       	rjmp	.+310    	; 0x1b0 <__bad_interrupt>
  7a:	00 00       	nop
  7c:	99 c0       	rjmp	.+306    	; 0x1b0 <__bad_interrupt>
  7e:	00 00       	nop
  80:	97 c0       	rjmp	.+302    	; 0x1b0 <__bad_interrupt>
  82:	00 00       	nop
  84:	95 c0       	rjmp	.+298    	; 0x1b0 <__bad_interrupt>
  86:	00 00       	nop
  88:	93 c0       	rjmp	.+294    	; 0x1b0 <__bad_interrupt>
	...

0000008c <__trampolines_end>:
  8c:	00 06       	cpc	r0, r16
  8e:	00 3e       	cpi	r16, 0xE0	; 224
  90:	00 3e       	cpi	r16, 0xE0	; 224
  92:	00 fe       	sbrs	r0, 0
  94:	07 fe       	sbrs	r0, 7
  96:	0f fe       	.word	0xfe0f	; ????
  98:	3f fe       	.word	0xfe3f	; ????
  9a:	ff fe       	.word	0xfeff	; ????
  9c:	ff fe       	.word	0xfeff	; ????
  9e:	ff fe       	.word	0xfeff	; ????
  a0:	ff fe       	.word	0xfeff	; ????
  a2:	ff fe       	.word	0xfeff	; ????
  a4:	ff fe       	.word	0xfeff	; ????
  a6:	ff fe       	.word	0xfeff	; ????
  a8:	ff fe       	.word	0xfeff	; ????
  aa:	ff fe       	.word	0xfeff	; ????
  ac:	7f fe       	.word	0xfe7f	; ????
  ae:	7f fe       	.word	0xfe7f	; ????
  b0:	3f fe       	.word	0xfe3f	; ????
  b2:	1f fe       	.word	0xfe1f	; ????
  b4:	0f fe       	.word	0xfe0f	; ????
  b6:	0f fe       	.word	0xfe0f	; ????
  b8:	07 fe       	sbrs	r0, 7
  ba:	01 fe       	sbrs	r0, 1
  bc:	01 fe       	sbrs	r0, 1
  be:	00 fe       	sbrs	r0, 0
  c0:	00 3e       	cpi	r16, 0xE0	; 224
  c2:	00 3e       	cpi	r16, 0xE0	; 224
  c4:	00 3e       	cpi	r16, 0xE0	; 224
  c6:	00 1e       	adc	r0, r16
	...

000000d0 <cactus>:
  d0:	03 00 07 80 07 80 07 80 67 80 e7 80 e7 80 e7 8c     ........g.......
  e0:	e7 9c e7 9c e7 9c e7 9c e7 9c 7f 9c 3f 9c 07 fc     ............?...
  f0:	07 f8 07 80 07 80 07 80 07 80 07 80 07 80 07 80     ................
 100:	00 00 00 00 00 00                                   ......

00000106 <dino>:
 106:	00 00 00 00 07 ff 00 0c ff 00 0c ff 00 0f ff 00     ................
 116:	0f ff 00 0f ff 00 0f ff 00 0f e0 40 1f fc 40 3f     ...........@..@?
 126:	c0 40 3f c0 71 ff f0 71 ff f0 7f ff d0 7f ff c0     .@?.q..q........
 136:	3f ff c0 0f ff 00 0f ff 00 03 fc 00 03 fc 00 01     ?...............
 146:	ec 00 01 84 00 01 04 00 01 c7 00 00 00 00 00 00     ................
	...

00000176 <__ctors_end>:
 176:	11 24       	eor	r1, r1
 178:	1f be       	out	0x3f, r1	; 63
 17a:	cf ef       	ldi	r28, 0xFF	; 255
 17c:	d0 e1       	ldi	r29, 0x10	; 16
 17e:	de bf       	out	0x3e, r29	; 62
 180:	cd bf       	out	0x3d, r28	; 61

00000182 <__do_copy_data>:
 182:	1b e0       	ldi	r17, 0x0B	; 11
 184:	a0 e0       	ldi	r26, 0x00	; 0
 186:	b1 e0       	ldi	r27, 0x01	; 1
 188:	ec e5       	ldi	r30, 0x5C	; 92
 18a:	fd e0       	ldi	r31, 0x0D	; 13
 18c:	00 e0       	ldi	r16, 0x00	; 0
 18e:	0b bf       	out	0x3b, r16	; 59
 190:	02 c0       	rjmp	.+4      	; 0x196 <__do_copy_data+0x14>
 192:	07 90       	elpm	r0, Z+
 194:	0d 92       	st	X+, r0
 196:	aa 34       	cpi	r26, 0x4A	; 74
 198:	b1 07       	cpc	r27, r17
 19a:	d9 f7       	brne	.-10     	; 0x192 <__do_copy_data+0x10>

0000019c <__do_clear_bss>:
 19c:	2f e0       	ldi	r18, 0x0F	; 15
 19e:	aa e4       	ldi	r26, 0x4A	; 74
 1a0:	bb e0       	ldi	r27, 0x0B	; 11
 1a2:	01 c0       	rjmp	.+2      	; 0x1a6 <.do_clear_bss_start>

000001a4 <.do_clear_bss_loop>:
 1a4:	1d 92       	st	X+, r1

000001a6 <.do_clear_bss_start>:
 1a6:	aa 35       	cpi	r26, 0x5A	; 90
 1a8:	b2 07       	cpc	r27, r18
 1aa:	e1 f7       	brne	.-8      	; 0x1a4 <.do_clear_bss_loop>
 1ac:	22 d5       	rcall	.+2628   	; 0xbf2 <main>
 1ae:	d4 c5       	rjmp	.+2984   	; 0xd58 <_exit>

000001b0 <__bad_interrupt>:
 1b0:	27 cf       	rjmp	.-434    	; 0x0 <__vectors>

000001b2 <cmndl>:
	glcd_draw_bitmap(dino,(38-jump),0, 26,24);
}
void printBoss(uint8_t y){
	uint8_t yy[] = {27, 16, 38};
	glcd_draw_bitmap(boss, yy[y], 90, 30, 40);
}
 1b2:	93 b1       	in	r25, 0x03	; 3
 1b4:	90 62       	ori	r25, 0x20	; 32
 1b6:	93 b9       	out	0x03, r25	; 3
 1b8:	93 e0       	ldi	r25, 0x03	; 3
 1ba:	9a 95       	dec	r25
 1bc:	f1 f7       	brne	.-4      	; 0x1ba <cmndl+0x8>
 1be:	00 00       	nop
 1c0:	93 b1       	in	r25, 0x03	; 3
 1c2:	9f 7e       	andi	r25, 0xEF	; 239
 1c4:	93 b9       	out	0x03, r25	; 3
 1c6:	93 b1       	in	r25, 0x03	; 3
 1c8:	9f 7b       	andi	r25, 0xBF	; 191
 1ca:	93 b9       	out	0x03, r25	; 3
 1cc:	93 b1       	in	r25, 0x03	; 3
 1ce:	90 68       	ori	r25, 0x80	; 128
 1d0:	93 b9       	out	0x03, r25	; 3
 1d2:	8b bb       	out	0x1b, r24	; 27
 1d4:	83 e0       	ldi	r24, 0x03	; 3
 1d6:	8a 95       	dec	r24
 1d8:	f1 f7       	brne	.-4      	; 0x1d6 <cmndl+0x24>
 1da:	00 00       	nop
 1dc:	83 b1       	in	r24, 0x03	; 3
 1de:	8f 7d       	andi	r24, 0xDF	; 223
 1e0:	83 b9       	out	0x03, r24	; 3
 1e2:	08 95       	ret

000001e4 <cmndr>:
 1e4:	93 b1       	in	r25, 0x03	; 3
 1e6:	90 62       	ori	r25, 0x20	; 32
 1e8:	93 b9       	out	0x03, r25	; 3
 1ea:	93 e0       	ldi	r25, 0x03	; 3
 1ec:	9a 95       	dec	r25
 1ee:	f1 f7       	brne	.-4      	; 0x1ec <cmndr+0x8>
 1f0:	00 00       	nop
 1f2:	93 b1       	in	r25, 0x03	; 3
 1f4:	9f 7e       	andi	r25, 0xEF	; 239
 1f6:	93 b9       	out	0x03, r25	; 3
 1f8:	93 b1       	in	r25, 0x03	; 3
 1fa:	90 64       	ori	r25, 0x40	; 64
 1fc:	93 b9       	out	0x03, r25	; 3
 1fe:	93 b1       	in	r25, 0x03	; 3
 200:	9f 77       	andi	r25, 0x7F	; 127
 202:	93 b9       	out	0x03, r25	; 3
 204:	8b bb       	out	0x1b, r24	; 27
 206:	83 e0       	ldi	r24, 0x03	; 3
 208:	8a 95       	dec	r24
 20a:	f1 f7       	brne	.-4      	; 0x208 <cmndr+0x24>
 20c:	00 00       	nop
 20e:	83 b1       	in	r24, 0x03	; 3
 210:	8f 7d       	andi	r24, 0xDF	; 223
 212:	83 b9       	out	0x03, r24	; 3
 214:	08 95       	ret

00000216 <cmnda>:
 216:	93 b1       	in	r25, 0x03	; 3
 218:	90 62       	ori	r25, 0x20	; 32
 21a:	93 b9       	out	0x03, r25	; 3
 21c:	93 e0       	ldi	r25, 0x03	; 3
 21e:	9a 95       	dec	r25
 220:	f1 f7       	brne	.-4      	; 0x21e <cmnda+0x8>
 222:	00 00       	nop
 224:	93 b1       	in	r25, 0x03	; 3
 226:	9f 7e       	andi	r25, 0xEF	; 239
 228:	93 b9       	out	0x03, r25	; 3
 22a:	93 b1       	in	r25, 0x03	; 3
 22c:	90 64       	ori	r25, 0x40	; 64
 22e:	93 b9       	out	0x03, r25	; 3
 230:	93 b1       	in	r25, 0x03	; 3
 232:	90 68       	ori	r25, 0x80	; 128
 234:	93 b9       	out	0x03, r25	; 3
 236:	8b bb       	out	0x1b, r24	; 27
 238:	83 e0       	ldi	r24, 0x03	; 3
 23a:	8a 95       	dec	r24
 23c:	f1 f7       	brne	.-4      	; 0x23a <cmnda+0x24>
 23e:	00 00       	nop
 240:	83 b1       	in	r24, 0x03	; 3
 242:	8f 7d       	andi	r24, 0xDF	; 223
 244:	83 b9       	out	0x03, r24	; 3
 246:	08 95       	ret

00000248 <datal>:
 248:	93 b1       	in	r25, 0x03	; 3
 24a:	90 62       	ori	r25, 0x20	; 32
 24c:	93 b9       	out	0x03, r25	; 3
 24e:	93 e0       	ldi	r25, 0x03	; 3
 250:	9a 95       	dec	r25
 252:	f1 f7       	brne	.-4      	; 0x250 <datal+0x8>
 254:	00 00       	nop
 256:	93 b1       	in	r25, 0x03	; 3
 258:	90 61       	ori	r25, 0x10	; 16
 25a:	93 b9       	out	0x03, r25	; 3
 25c:	93 b1       	in	r25, 0x03	; 3
 25e:	9f 7b       	andi	r25, 0xBF	; 191
 260:	93 b9       	out	0x03, r25	; 3
 262:	93 b1       	in	r25, 0x03	; 3
 264:	90 68       	ori	r25, 0x80	; 128
 266:	93 b9       	out	0x03, r25	; 3
 268:	8b bb       	out	0x1b, r24	; 27
 26a:	83 e0       	ldi	r24, 0x03	; 3
 26c:	8a 95       	dec	r24
 26e:	f1 f7       	brne	.-4      	; 0x26c <datal+0x24>
 270:	00 00       	nop
 272:	83 b1       	in	r24, 0x03	; 3
 274:	8f 7d       	andi	r24, 0xDF	; 223
 276:	83 b9       	out	0x03, r24	; 3
 278:	08 95       	ret

0000027a <datar>:
 27a:	93 b1       	in	r25, 0x03	; 3
 27c:	90 62       	ori	r25, 0x20	; 32
 27e:	93 b9       	out	0x03, r25	; 3
 280:	93 e0       	ldi	r25, 0x03	; 3
 282:	9a 95       	dec	r25
 284:	f1 f7       	brne	.-4      	; 0x282 <datar+0x8>
 286:	00 00       	nop
 288:	93 b1       	in	r25, 0x03	; 3
 28a:	90 61       	ori	r25, 0x10	; 16
 28c:	93 b9       	out	0x03, r25	; 3
 28e:	93 b1       	in	r25, 0x03	; 3
 290:	90 64       	ori	r25, 0x40	; 64
 292:	93 b9       	out	0x03, r25	; 3
 294:	93 b1       	in	r25, 0x03	; 3
 296:	9f 77       	andi	r25, 0x7F	; 127
 298:	93 b9       	out	0x03, r25	; 3
 29a:	8b bb       	out	0x1b, r24	; 27
 29c:	83 e0       	ldi	r24, 0x03	; 3
 29e:	8a 95       	dec	r24
 2a0:	f1 f7       	brne	.-4      	; 0x29e <datar+0x24>
 2a2:	00 00       	nop
 2a4:	83 b1       	in	r24, 0x03	; 3
 2a6:	8f 7d       	andi	r24, 0xDF	; 223
 2a8:	83 b9       	out	0x03, r24	; 3
 2aa:	08 95       	ret

000002ac <dataa>:
 2ac:	93 b1       	in	r25, 0x03	; 3
 2ae:	90 62       	ori	r25, 0x20	; 32
 2b0:	93 b9       	out	0x03, r25	; 3
 2b2:	93 e0       	ldi	r25, 0x03	; 3
 2b4:	9a 95       	dec	r25
 2b6:	f1 f7       	brne	.-4      	; 0x2b4 <dataa+0x8>
 2b8:	00 00       	nop
 2ba:	93 b1       	in	r25, 0x03	; 3
 2bc:	90 61       	ori	r25, 0x10	; 16
 2be:	93 b9       	out	0x03, r25	; 3
 2c0:	93 b1       	in	r25, 0x03	; 3
 2c2:	90 64       	ori	r25, 0x40	; 64
 2c4:	93 b9       	out	0x03, r25	; 3
 2c6:	93 b1       	in	r25, 0x03	; 3
 2c8:	90 68       	ori	r25, 0x80	; 128
 2ca:	93 b9       	out	0x03, r25	; 3
 2cc:	8b bb       	out	0x1b, r24	; 27
 2ce:	83 e0       	ldi	r24, 0x03	; 3
 2d0:	8a 95       	dec	r24
 2d2:	f1 f7       	brne	.-4      	; 0x2d0 <dataa+0x24>
 2d4:	00 00       	nop
 2d6:	83 b1       	in	r24, 0x03	; 3
 2d8:	8f 7d       	andi	r24, 0xDF	; 223
 2da:	83 b9       	out	0x03, r24	; 3
 2dc:	08 95       	ret

000002de <lcd_clear>:
 2de:	1f 93       	push	r17
 2e0:	cf 93       	push	r28
 2e2:	df 93       	push	r29
 2e4:	18 eb       	ldi	r17, 0xB8	; 184
 2e6:	d0 e0       	ldi	r29, 0x00	; 0
 2e8:	0d c0       	rjmp	.+26     	; 0x304 <lcd_clear+0x26>
 2ea:	81 2f       	mov	r24, r17
 2ec:	94 df       	rcall	.-216    	; 0x216 <cmnda>
 2ee:	80 e4       	ldi	r24, 0x40	; 64
 2f0:	92 df       	rcall	.-220    	; 0x216 <cmnda>
 2f2:	c0 e0       	ldi	r28, 0x00	; 0
 2f4:	03 c0       	rjmp	.+6      	; 0x2fc <lcd_clear+0x1e>
 2f6:	80 e0       	ldi	r24, 0x00	; 0
 2f8:	d9 df       	rcall	.-78     	; 0x2ac <dataa>
 2fa:	cf 5f       	subi	r28, 0xFF	; 255
 2fc:	c0 34       	cpi	r28, 0x40	; 64
 2fe:	d8 f3       	brcs	.-10     	; 0x2f6 <lcd_clear+0x18>
 300:	1f 5f       	subi	r17, 0xFF	; 255
 302:	df 5f       	subi	r29, 0xFF	; 255
 304:	d8 30       	cpi	r29, 0x08	; 8
 306:	88 f3       	brcs	.-30     	; 0x2ea <lcd_clear+0xc>
 308:	df 91       	pop	r29
 30a:	cf 91       	pop	r28
 30c:	1f 91       	pop	r17
 30e:	08 95       	ret

00000310 <lcd_init>:
 310:	8f e3       	ldi	r24, 0x3F	; 63
 312:	81 df       	rcall	.-254    	; 0x216 <cmnda>
 314:	80 ec       	ldi	r24, 0xC0	; 192
 316:	7f df       	rcall	.-258    	; 0x216 <cmnda>
 318:	88 eb       	ldi	r24, 0xB8	; 184
 31a:	7d df       	rcall	.-262    	; 0x216 <cmnda>
 31c:	80 e4       	ldi	r24, 0x40	; 64
 31e:	7b cf       	rjmp	.-266    	; 0x216 <cmnda>
 320:	08 95       	ret

00000322 <lcd_xy>:
 322:	80 93 54 0b 	sts	0x0B54, r24	; 0x800b54 <xchar>
 326:	60 93 59 0f 	sts	0x0F59, r22	; 0x800f59 <ychar>
 32a:	88 54       	subi	r24, 0x48	; 72
 32c:	74 df       	rcall	.-280    	; 0x216 <cmnda>
 32e:	80 91 59 0f 	lds	r24, 0x0F59	; 0x800f59 <ychar>
 332:	8a 30       	cpi	r24, 0x0A	; 10
 334:	48 f4       	brcc	.+18     	; 0x348 <lcd_xy+0x26>
 336:	98 2f       	mov	r25, r24
 338:	99 0f       	add	r25, r25
 33a:	89 0f       	add	r24, r25
 33c:	98 2f       	mov	r25, r24
 33e:	99 0f       	add	r25, r25
 340:	84 e4       	ldi	r24, 0x44	; 68
 342:	89 0f       	add	r24, r25
 344:	36 cf       	rjmp	.-404    	; 0x1b2 <cmndl>
 346:	08 95       	ret
 348:	90 e0       	ldi	r25, 0x00	; 0
 34a:	0a 97       	sbiw	r24, 0x0a	; 10
 34c:	98 2f       	mov	r25, r24
 34e:	99 0f       	add	r25, r25
 350:	89 0f       	add	r24, r25
 352:	98 2f       	mov	r25, r24
 354:	99 0f       	add	r25, r25
 356:	80 e4       	ldi	r24, 0x40	; 64
 358:	89 0f       	add	r24, r25
 35a:	44 cf       	rjmp	.-376    	; 0x1e4 <cmndr>
 35c:	08 95       	ret

0000035e <lcd_char>:
 35e:	cf 93       	push	r28
 360:	df 93       	push	r29
 362:	d8 2f       	mov	r29, r24
 364:	c0 e0       	ldi	r28, 0x00	; 0
 366:	26 c0       	rjmp	.+76     	; 0x3b4 <lcd_char+0x56>
 368:	80 91 59 0f 	lds	r24, 0x0F59	; 0x800f59 <ychar>
 36c:	8a 30       	cpi	r24, 0x0A	; 10
 36e:	88 f4       	brcc	.+34     	; 0x392 <lcd_char+0x34>
 370:	8d 2f       	mov	r24, r29
 372:	90 e0       	ldi	r25, 0x00	; 0
 374:	80 97       	sbiw	r24, 0x20	; 32
 376:	fc 01       	movw	r30, r24
 378:	ee 0f       	add	r30, r30
 37a:	ff 1f       	adc	r31, r31
 37c:	ee 0f       	add	r30, r30
 37e:	ff 1f       	adc	r31, r31
 380:	e8 0f       	add	r30, r24
 382:	f9 1f       	adc	r31, r25
 384:	ea 50       	subi	r30, 0x0A	; 10
 386:	f7 4f       	sbci	r31, 0xF7	; 247
 388:	ec 0f       	add	r30, r28
 38a:	f1 1d       	adc	r31, r1
 38c:	80 81       	ld	r24, Z
 38e:	5c df       	rcall	.-328    	; 0x248 <datal>
 390:	10 c0       	rjmp	.+32     	; 0x3b2 <lcd_char+0x54>
 392:	8d 2f       	mov	r24, r29
 394:	90 e0       	ldi	r25, 0x00	; 0
 396:	80 97       	sbiw	r24, 0x20	; 32
 398:	fc 01       	movw	r30, r24
 39a:	ee 0f       	add	r30, r30
 39c:	ff 1f       	adc	r31, r31
 39e:	ee 0f       	add	r30, r30
 3a0:	ff 1f       	adc	r31, r31
 3a2:	e8 0f       	add	r30, r24
 3a4:	f9 1f       	adc	r31, r25
 3a6:	ea 50       	subi	r30, 0x0A	; 10
 3a8:	f7 4f       	sbci	r31, 0xF7	; 247
 3aa:	ec 0f       	add	r30, r28
 3ac:	f1 1d       	adc	r31, r1
 3ae:	80 81       	ld	r24, Z
 3b0:	64 df       	rcall	.-312    	; 0x27a <datar>
 3b2:	cf 5f       	subi	r28, 0xFF	; 255
 3b4:	c5 30       	cpi	r28, 0x05	; 5
 3b6:	c0 f2       	brcs	.-80     	; 0x368 <lcd_char+0xa>
 3b8:	80 91 59 0f 	lds	r24, 0x0F59	; 0x800f59 <ychar>
 3bc:	8a 30       	cpi	r24, 0x0A	; 10
 3be:	18 f4       	brcc	.+6      	; 0x3c6 <lcd_char+0x68>
 3c0:	80 e0       	ldi	r24, 0x00	; 0
 3c2:	42 df       	rcall	.-380    	; 0x248 <datal>
 3c4:	02 c0       	rjmp	.+4      	; 0x3ca <lcd_char+0x6c>
 3c6:	80 e0       	ldi	r24, 0x00	; 0
 3c8:	58 df       	rcall	.-336    	; 0x27a <datar>
 3ca:	df 91       	pop	r29
 3cc:	cf 91       	pop	r28
 3ce:	08 95       	ret

000003d0 <lcd_string>:
 3d0:	cf 93       	push	r28
 3d2:	df 93       	push	r29
 3d4:	ea 01       	movw	r28, r20
 3d6:	80 93 54 0b 	sts	0x0B54, r24	; 0x800b54 <xchar>
 3da:	60 93 59 0f 	sts	0x0F59, r22	; 0x800f59 <ychar>
 3de:	a1 df       	rcall	.-190    	; 0x322 <lcd_xy>
 3e0:	0d c0       	rjmp	.+26     	; 0x3fc <lcd_string+0x2c>
 3e2:	80 91 59 0f 	lds	r24, 0x0F59	; 0x800f59 <ychar>
 3e6:	8a 30       	cpi	r24, 0x0A	; 10
 3e8:	11 f4       	brne	.+4      	; 0x3ee <lcd_string+0x1e>
 3ea:	80 e4       	ldi	r24, 0x40	; 64
 3ec:	fb de       	rcall	.-522    	; 0x1e4 <cmndr>
 3ee:	89 91       	ld	r24, Y+
 3f0:	b6 df       	rcall	.-148    	; 0x35e <lcd_char>
 3f2:	80 91 59 0f 	lds	r24, 0x0F59	; 0x800f59 <ychar>
 3f6:	8f 5f       	subi	r24, 0xFF	; 255
 3f8:	80 93 59 0f 	sts	0x0F59, r24	; 0x800f59 <ychar>
 3fc:	88 81       	ld	r24, Y
 3fe:	81 11       	cpse	r24, r1
 400:	f0 cf       	rjmp	.-32     	; 0x3e2 <lcd_string+0x12>
 402:	df 91       	pop	r29
 404:	cf 91       	pop	r28
 406:	08 95       	ret

00000408 <GLCD_Axis_xy>:
 408:	cf 93       	push	r28
 40a:	c6 2f       	mov	r28, r22
 40c:	88 54       	subi	r24, 0x48	; 72
 40e:	03 df       	rcall	.-506    	; 0x216 <cmnda>
 410:	c0 34       	cpi	r28, 0x40	; 64
 412:	20 f4       	brcc	.+8      	; 0x41c <GLCD_Axis_xy+0x14>
 414:	80 e4       	ldi	r24, 0x40	; 64
 416:	8c 0f       	add	r24, r28
 418:	cc de       	rcall	.-616    	; 0x1b2 <cmndl>
 41a:	02 c0       	rjmp	.+4      	; 0x420 <GLCD_Axis_xy+0x18>
 41c:	8c 2f       	mov	r24, r28
 41e:	e2 de       	rcall	.-572    	; 0x1e4 <cmndr>
 420:	cf 91       	pop	r28
 422:	08 95       	ret

00000424 <GLCD_Dot>:
 424:	ef 92       	push	r14
 426:	ff 92       	push	r15
 428:	0f 93       	push	r16
 42a:	1f 93       	push	r17
 42c:	cf 93       	push	r28
 42e:	80 34       	cpi	r24, 0x40	; 64
 430:	08 f0       	brcs	.+2      	; 0x434 <GLCD_Dot+0x10>
 432:	54 c0       	rjmp	.+168    	; 0x4dc <GLCD_Dot+0xb8>
 434:	66 23       	and	r22, r22
 436:	0c f4       	brge	.+2      	; 0x43a <GLCD_Dot+0x16>
 438:	51 c0       	rjmp	.+162    	; 0x4dc <GLCD_Dot+0xb8>
 43a:	28 2f       	mov	r18, r24
 43c:	26 95       	lsr	r18
 43e:	26 95       	lsr	r18
 440:	26 95       	lsr	r18
 442:	98 2f       	mov	r25, r24
 444:	97 70       	andi	r25, 0x07	; 7
 446:	71 f0       	breq	.+28     	; 0x464 <GLCD_Dot+0x40>
 448:	91 30       	cpi	r25, 0x01	; 1
 44a:	71 f0       	breq	.+28     	; 0x468 <GLCD_Dot+0x44>
 44c:	92 30       	cpi	r25, 0x02	; 2
 44e:	71 f0       	breq	.+28     	; 0x46c <GLCD_Dot+0x48>
 450:	93 30       	cpi	r25, 0x03	; 3
 452:	71 f0       	breq	.+28     	; 0x470 <GLCD_Dot+0x4c>
 454:	94 30       	cpi	r25, 0x04	; 4
 456:	71 f0       	breq	.+28     	; 0x474 <GLCD_Dot+0x50>
 458:	95 30       	cpi	r25, 0x05	; 5
 45a:	71 f0       	breq	.+28     	; 0x478 <GLCD_Dot+0x54>
 45c:	96 30       	cpi	r25, 0x06	; 6
 45e:	71 f4       	brne	.+28     	; 0x47c <GLCD_Dot+0x58>
 460:	90 e4       	ldi	r25, 0x40	; 64
 462:	0d c0       	rjmp	.+26     	; 0x47e <GLCD_Dot+0x5a>
 464:	91 e0       	ldi	r25, 0x01	; 1
 466:	0b c0       	rjmp	.+22     	; 0x47e <GLCD_Dot+0x5a>
 468:	92 e0       	ldi	r25, 0x02	; 2
 46a:	09 c0       	rjmp	.+18     	; 0x47e <GLCD_Dot+0x5a>
 46c:	94 e0       	ldi	r25, 0x04	; 4
 46e:	07 c0       	rjmp	.+14     	; 0x47e <GLCD_Dot+0x5a>
 470:	98 e0       	ldi	r25, 0x08	; 8
 472:	05 c0       	rjmp	.+10     	; 0x47e <GLCD_Dot+0x5a>
 474:	90 e1       	ldi	r25, 0x10	; 16
 476:	03 c0       	rjmp	.+6      	; 0x47e <GLCD_Dot+0x5a>
 478:	90 e2       	ldi	r25, 0x20	; 32
 47a:	01 c0       	rjmp	.+2      	; 0x47e <GLCD_Dot+0x5a>
 47c:	90 e8       	ldi	r25, 0x80	; 128
 47e:	c6 2f       	mov	r28, r22
 480:	02 2f       	mov	r16, r18
 482:	10 e0       	ldi	r17, 0x00	; 0
 484:	e6 2e       	mov	r14, r22
 486:	f1 2c       	mov	r15, r1
 488:	f8 01       	movw	r30, r16
 48a:	f6 95       	lsr	r31
 48c:	fe 2f       	mov	r31, r30
 48e:	ee 27       	eor	r30, r30
 490:	f7 95       	ror	r31
 492:	e7 95       	ror	r30
 494:	e7 5a       	subi	r30, 0xA7	; 167
 496:	f4 4f       	sbci	r31, 0xF4	; 244
 498:	ee 0d       	add	r30, r14
 49a:	ff 1d       	adc	r31, r15
 49c:	80 81       	ld	r24, Z
 49e:	98 2b       	or	r25, r24
 4a0:	90 83       	st	Z, r25
 4a2:	82 2f       	mov	r24, r18
 4a4:	b1 df       	rcall	.-158    	; 0x408 <GLCD_Axis_xy>
 4a6:	c0 34       	cpi	r28, 0x40	; 64
 4a8:	68 f4       	brcc	.+26     	; 0x4c4 <GLCD_Dot+0xa0>
 4aa:	16 95       	lsr	r17
 4ac:	10 2f       	mov	r17, r16
 4ae:	00 27       	eor	r16, r16
 4b0:	17 95       	ror	r17
 4b2:	07 95       	ror	r16
 4b4:	07 5a       	subi	r16, 0xA7	; 167
 4b6:	14 4f       	sbci	r17, 0xF4	; 244
 4b8:	f8 01       	movw	r30, r16
 4ba:	ee 0d       	add	r30, r14
 4bc:	ff 1d       	adc	r31, r15
 4be:	80 81       	ld	r24, Z
 4c0:	c3 de       	rcall	.-634    	; 0x248 <datal>
 4c2:	0c c0       	rjmp	.+24     	; 0x4dc <GLCD_Dot+0xb8>
 4c4:	16 95       	lsr	r17
 4c6:	10 2f       	mov	r17, r16
 4c8:	00 27       	eor	r16, r16
 4ca:	17 95       	ror	r17
 4cc:	07 95       	ror	r16
 4ce:	07 5a       	subi	r16, 0xA7	; 167
 4d0:	14 4f       	sbci	r17, 0xF4	; 244
 4d2:	f8 01       	movw	r30, r16
 4d4:	ee 0d       	add	r30, r14
 4d6:	ff 1d       	adc	r31, r15
 4d8:	80 81       	ld	r24, Z
 4da:	cf de       	rcall	.-610    	; 0x27a <datar>
 4dc:	cf 91       	pop	r28
 4de:	1f 91       	pop	r17
 4e0:	0f 91       	pop	r16
 4e2:	ff 90       	pop	r15
 4e4:	ef 90       	pop	r14
 4e6:	08 95       	ret

000004e8 <ScreenBuffer_clear>:
 4e8:	90 e0       	ldi	r25, 0x00	; 0
 4ea:	0f c0       	rjmp	.+30     	; 0x50a <ScreenBuffer_clear+0x22>
 4ec:	20 e8       	ldi	r18, 0x80	; 128
 4ee:	92 9f       	mul	r25, r18
 4f0:	f0 01       	movw	r30, r0
 4f2:	11 24       	eor	r1, r1
 4f4:	e7 5a       	subi	r30, 0xA7	; 167
 4f6:	f4 4f       	sbci	r31, 0xF4	; 244
 4f8:	e8 0f       	add	r30, r24
 4fa:	f1 1d       	adc	r31, r1
 4fc:	10 82       	st	Z, r1
 4fe:	8f 5f       	subi	r24, 0xFF	; 255
 500:	01 c0       	rjmp	.+2      	; 0x504 <ScreenBuffer_clear+0x1c>
 502:	80 e0       	ldi	r24, 0x00	; 0
 504:	88 23       	and	r24, r24
 506:	94 f7       	brge	.-28     	; 0x4ec <ScreenBuffer_clear+0x4>
 508:	9f 5f       	subi	r25, 0xFF	; 255
 50a:	98 30       	cpi	r25, 0x08	; 8
 50c:	d0 f3       	brcs	.-12     	; 0x502 <ScreenBuffer_clear+0x1a>
 50e:	08 95       	ret

00000510 <GLCD_Line>:
 510:	af 92       	push	r10
 512:	bf 92       	push	r11
 514:	df 92       	push	r13
 516:	ef 92       	push	r14
 518:	ff 92       	push	r15
 51a:	0f 93       	push	r16
 51c:	1f 93       	push	r17
 51e:	cf 93       	push	r28
 520:	df 93       	push	r29
 522:	f8 2e       	mov	r15, r24
 524:	c6 2f       	mov	r28, r22
 526:	d4 2e       	mov	r13, r20
 528:	e2 2e       	mov	r14, r18
 52a:	62 17       	cp	r22, r18
 52c:	09 f4       	brne	.+2      	; 0x530 <GLCD_Line+0x20>
 52e:	48 c0       	rjmp	.+144    	; 0x5c0 <GLCD_Line+0xb0>
 530:	62 17       	cp	r22, r18
 532:	18 f5       	brcc	.+70     	; 0x57a <GLCD_Line+0x6a>
 534:	c6 2f       	mov	r28, r22
 536:	d0 e0       	ldi	r29, 0x00	; 0
 538:	8e 01       	movw	r16, r28
 53a:	19 c0       	rjmp	.+50     	; 0x56e <GLCD_Line+0x5e>
 53c:	f8 01       	movw	r30, r16
 53e:	ec 1b       	sub	r30, r28
 540:	fd 0b       	sbc	r31, r29
 542:	2f 2d       	mov	r18, r15
 544:	30 e0       	ldi	r19, 0x00	; 0
 546:	4d 2d       	mov	r20, r13
 548:	50 e0       	ldi	r21, 0x00	; 0
 54a:	42 1b       	sub	r20, r18
 54c:	53 0b       	sbc	r21, r19
 54e:	e4 9f       	mul	r30, r20
 550:	c0 01       	movw	r24, r0
 552:	e5 9f       	mul	r30, r21
 554:	90 0d       	add	r25, r0
 556:	f4 9f       	mul	r31, r20
 558:	90 0d       	add	r25, r0
 55a:	11 24       	eor	r1, r1
 55c:	6c 1b       	sub	r22, r28
 55e:	7d 0b       	sbc	r23, r29
 560:	be d3       	rcall	.+1916   	; 0xcde <__divmodhi4>
 562:	86 2f       	mov	r24, r22
 564:	60 2f       	mov	r22, r16
 566:	8f 0d       	add	r24, r15
 568:	5d df       	rcall	.-326    	; 0x424 <GLCD_Dot>
 56a:	0f 5f       	subi	r16, 0xFF	; 255
 56c:	1f 4f       	sbci	r17, 0xFF	; 255
 56e:	6e 2d       	mov	r22, r14
 570:	70 e0       	ldi	r23, 0x00	; 0
 572:	60 17       	cp	r22, r16
 574:	71 07       	cpc	r23, r17
 576:	14 f7       	brge	.-60     	; 0x53c <GLCD_Line+0x2c>
 578:	6f c0       	rjmp	.+222    	; 0x658 <GLCD_Line+0x148>
 57a:	c6 2f       	mov	r28, r22
 57c:	d0 e0       	ldi	r29, 0x00	; 0
 57e:	8e 01       	movw	r16, r28
 580:	19 c0       	rjmp	.+50     	; 0x5b4 <GLCD_Line+0xa4>
 582:	f8 01       	movw	r30, r16
 584:	ec 1b       	sub	r30, r28
 586:	fd 0b       	sbc	r31, r29
 588:	2f 2d       	mov	r18, r15
 58a:	30 e0       	ldi	r19, 0x00	; 0
 58c:	4d 2d       	mov	r20, r13
 58e:	50 e0       	ldi	r21, 0x00	; 0
 590:	42 1b       	sub	r20, r18
 592:	53 0b       	sbc	r21, r19
 594:	e4 9f       	mul	r30, r20
 596:	c0 01       	movw	r24, r0
 598:	e5 9f       	mul	r30, r21
 59a:	90 0d       	add	r25, r0
 59c:	f4 9f       	mul	r31, r20
 59e:	90 0d       	add	r25, r0
 5a0:	11 24       	eor	r1, r1
 5a2:	6c 1b       	sub	r22, r28
 5a4:	7d 0b       	sbc	r23, r29
 5a6:	9b d3       	rcall	.+1846   	; 0xcde <__divmodhi4>
 5a8:	86 2f       	mov	r24, r22
 5aa:	60 2f       	mov	r22, r16
 5ac:	8f 0d       	add	r24, r15
 5ae:	3a df       	rcall	.-396    	; 0x424 <GLCD_Dot>
 5b0:	01 50       	subi	r16, 0x01	; 1
 5b2:	11 09       	sbc	r17, r1
 5b4:	6e 2d       	mov	r22, r14
 5b6:	70 e0       	ldi	r23, 0x00	; 0
 5b8:	06 17       	cp	r16, r22
 5ba:	17 07       	cpc	r17, r23
 5bc:	14 f7       	brge	.-60     	; 0x582 <GLCD_Line+0x72>
 5be:	4c c0       	rjmp	.+152    	; 0x658 <GLCD_Line+0x148>
 5c0:	84 17       	cp	r24, r20
 5c2:	09 f4       	brne	.+2      	; 0x5c6 <GLCD_Line+0xb6>
 5c4:	48 c0       	rjmp	.+144    	; 0x656 <GLCD_Line+0x146>
 5c6:	84 17       	cp	r24, r20
 5c8:	18 f5       	brcc	.+70     	; 0x610 <GLCD_Line+0x100>
 5ca:	a8 2e       	mov	r10, r24
 5cc:	b1 2c       	mov	r11, r1
 5ce:	85 01       	movw	r16, r10
 5d0:	19 c0       	rjmp	.+50     	; 0x604 <GLCD_Line+0xf4>
 5d2:	f8 01       	movw	r30, r16
 5d4:	ea 19       	sub	r30, r10
 5d6:	fb 09       	sbc	r31, r11
 5d8:	2c 2f       	mov	r18, r28
 5da:	30 e0       	ldi	r19, 0x00	; 0
 5dc:	4e 2d       	mov	r20, r14
 5de:	50 e0       	ldi	r21, 0x00	; 0
 5e0:	42 1b       	sub	r20, r18
 5e2:	53 0b       	sbc	r21, r19
 5e4:	e4 9f       	mul	r30, r20
 5e6:	c0 01       	movw	r24, r0
 5e8:	e5 9f       	mul	r30, r21
 5ea:	90 0d       	add	r25, r0
 5ec:	f4 9f       	mul	r31, r20
 5ee:	90 0d       	add	r25, r0
 5f0:	11 24       	eor	r1, r1
 5f2:	6a 19       	sub	r22, r10
 5f4:	7b 09       	sbc	r23, r11
 5f6:	73 d3       	rcall	.+1766   	; 0xcde <__divmodhi4>
 5f8:	62 0f       	add	r22, r18
 5fa:	73 1f       	adc	r23, r19
 5fc:	80 2f       	mov	r24, r16
 5fe:	12 df       	rcall	.-476    	; 0x424 <GLCD_Dot>
 600:	0f 5f       	subi	r16, 0xFF	; 255
 602:	1f 4f       	sbci	r17, 0xFF	; 255
 604:	6d 2d       	mov	r22, r13
 606:	70 e0       	ldi	r23, 0x00	; 0
 608:	60 17       	cp	r22, r16
 60a:	71 07       	cpc	r23, r17
 60c:	14 f7       	brge	.-60     	; 0x5d2 <GLCD_Line+0xc2>
 60e:	24 c0       	rjmp	.+72     	; 0x658 <GLCD_Line+0x148>
 610:	a8 2e       	mov	r10, r24
 612:	b1 2c       	mov	r11, r1
 614:	85 01       	movw	r16, r10
 616:	19 c0       	rjmp	.+50     	; 0x64a <GLCD_Line+0x13a>
 618:	f8 01       	movw	r30, r16
 61a:	ea 19       	sub	r30, r10
 61c:	fb 09       	sbc	r31, r11
 61e:	2c 2f       	mov	r18, r28
 620:	30 e0       	ldi	r19, 0x00	; 0
 622:	4e 2d       	mov	r20, r14
 624:	50 e0       	ldi	r21, 0x00	; 0
 626:	42 1b       	sub	r20, r18
 628:	53 0b       	sbc	r21, r19
 62a:	e4 9f       	mul	r30, r20
 62c:	c0 01       	movw	r24, r0
 62e:	e5 9f       	mul	r30, r21
 630:	90 0d       	add	r25, r0
 632:	f4 9f       	mul	r31, r20
 634:	90 0d       	add	r25, r0
 636:	11 24       	eor	r1, r1
 638:	6a 19       	sub	r22, r10
 63a:	7b 09       	sbc	r23, r11
 63c:	50 d3       	rcall	.+1696   	; 0xcde <__divmodhi4>
 63e:	62 0f       	add	r22, r18
 640:	73 1f       	adc	r23, r19
 642:	80 2f       	mov	r24, r16
 644:	ef de       	rcall	.-546    	; 0x424 <GLCD_Dot>
 646:	01 50       	subi	r16, 0x01	; 1
 648:	11 09       	sbc	r17, r1
 64a:	6d 2d       	mov	r22, r13
 64c:	70 e0       	ldi	r23, 0x00	; 0
 64e:	06 17       	cp	r16, r22
 650:	17 07       	cpc	r17, r23
 652:	14 f7       	brge	.-60     	; 0x618 <GLCD_Line+0x108>
 654:	01 c0       	rjmp	.+2      	; 0x658 <GLCD_Line+0x148>
 656:	e6 de       	rcall	.-564    	; 0x424 <GLCD_Dot>
 658:	df 91       	pop	r29
 65a:	cf 91       	pop	r28
 65c:	1f 91       	pop	r17
 65e:	0f 91       	pop	r16
 660:	ff 90       	pop	r15
 662:	ef 90       	pop	r14
 664:	df 90       	pop	r13
 666:	bf 90       	pop	r11
 668:	af 90       	pop	r10
 66a:	08 95       	ret

0000066c <GLCD_1DigitDecimal>:
 66c:	9d ec       	ldi	r25, 0xCD	; 205
 66e:	89 9f       	mul	r24, r25
 670:	91 2d       	mov	r25, r1
 672:	11 24       	eor	r1, r1
 674:	96 95       	lsr	r25
 676:	96 95       	lsr	r25
 678:	96 95       	lsr	r25
 67a:	99 0f       	add	r25, r25
 67c:	29 2f       	mov	r18, r25
 67e:	22 0f       	add	r18, r18
 680:	22 0f       	add	r18, r18
 682:	92 0f       	add	r25, r18
 684:	89 1b       	sub	r24, r25
 686:	98 2f       	mov	r25, r24
 688:	31 f4       	brne	.+12     	; 0x696 <GLCD_1DigitDecimal+0x2a>
 68a:	61 11       	cpse	r22, r1
 68c:	04 c0       	rjmp	.+8      	; 0x696 <GLCD_1DigitDecimal+0x2a>
 68e:	80 e2       	ldi	r24, 0x20	; 32
 690:	66 de       	rcall	.-820    	; 0x35e <lcd_char>
 692:	80 e0       	ldi	r24, 0x00	; 0
 694:	08 95       	ret
 696:	80 e3       	ldi	r24, 0x30	; 48
 698:	89 0f       	add	r24, r25
 69a:	61 de       	rcall	.-830    	; 0x35e <lcd_char>
 69c:	81 e0       	ldi	r24, 0x01	; 1
 69e:	08 95       	ret

000006a0 <GLCD_4DigitDecimal>:
 6a0:	ef 92       	push	r14
 6a2:	ff 92       	push	r15
 6a4:	0f 93       	push	r16
 6a6:	1f 93       	push	r17
 6a8:	cf 93       	push	r28
 6aa:	df 93       	push	r29
 6ac:	ac 01       	movw	r20, r24
 6ae:	9c 01       	movw	r18, r24
 6b0:	32 95       	swap	r19
 6b2:	22 95       	swap	r18
 6b4:	2f 70       	andi	r18, 0x0F	; 15
 6b6:	23 27       	eor	r18, r19
 6b8:	3f 70       	andi	r19, 0x0F	; 15
 6ba:	23 27       	eor	r18, r19
 6bc:	a7 e4       	ldi	r26, 0x47	; 71
 6be:	b3 e0       	ldi	r27, 0x03	; 3
 6c0:	21 d3       	rcall	.+1602   	; 0xd04 <__umulhisi3>
 6c2:	ec 01       	movw	r28, r24
 6c4:	d6 95       	lsr	r29
 6c6:	c7 95       	ror	r28
 6c8:	d6 95       	lsr	r29
 6ca:	c7 95       	ror	r28
 6cc:	d6 95       	lsr	r29
 6ce:	c7 95       	ror	r28
 6d0:	20 e1       	ldi	r18, 0x10	; 16
 6d2:	37 e2       	ldi	r19, 0x27	; 39
 6d4:	c2 9f       	mul	r28, r18
 6d6:	c0 01       	movw	r24, r0
 6d8:	c3 9f       	mul	r28, r19
 6da:	90 0d       	add	r25, r0
 6dc:	d2 9f       	mul	r29, r18
 6de:	90 0d       	add	r25, r0
 6e0:	11 24       	eor	r1, r1
 6e2:	ea 01       	movw	r28, r20
 6e4:	c8 1b       	sub	r28, r24
 6e6:	d9 0b       	sbc	r29, r25
 6e8:	7e 01       	movw	r14, r28
 6ea:	f6 94       	lsr	r15
 6ec:	e7 94       	ror	r14
 6ee:	f6 94       	lsr	r15
 6f0:	e7 94       	ror	r14
 6f2:	f6 94       	lsr	r15
 6f4:	e7 94       	ror	r14
 6f6:	97 01       	movw	r18, r14
 6f8:	a5 ec       	ldi	r26, 0xC5	; 197
 6fa:	b0 e2       	ldi	r27, 0x20	; 32
 6fc:	03 d3       	rcall	.+1542   	; 0xd04 <__umulhisi3>
 6fe:	8c 01       	movw	r16, r24
 700:	12 95       	swap	r17
 702:	02 95       	swap	r16
 704:	0f 70       	andi	r16, 0x0F	; 15
 706:	01 27       	eor	r16, r17
 708:	1f 70       	andi	r17, 0x0F	; 15
 70a:	01 27       	eor	r16, r17
 70c:	60 e0       	ldi	r22, 0x00	; 0
 70e:	80 2f       	mov	r24, r16
 710:	ad df       	rcall	.-166    	; 0x66c <GLCD_1DigitDecimal>
 712:	48 2f       	mov	r20, r24
 714:	28 ee       	ldi	r18, 0xE8	; 232
 716:	33 e0       	ldi	r19, 0x03	; 3
 718:	02 9f       	mul	r16, r18
 71a:	c0 01       	movw	r24, r0
 71c:	03 9f       	mul	r16, r19
 71e:	90 0d       	add	r25, r0
 720:	12 9f       	mul	r17, r18
 722:	90 0d       	add	r25, r0
 724:	11 24       	eor	r1, r1
 726:	c8 1b       	sub	r28, r24
 728:	d9 0b       	sbc	r29, r25
 72a:	7e 01       	movw	r14, r28
 72c:	f6 94       	lsr	r15
 72e:	e7 94       	ror	r14
 730:	f6 94       	lsr	r15
 732:	e7 94       	ror	r14
 734:	97 01       	movw	r18, r14
 736:	ab e7       	ldi	r26, 0x7B	; 123
 738:	b4 e1       	ldi	r27, 0x14	; 20
 73a:	e4 d2       	rcall	.+1480   	; 0xd04 <__umulhisi3>
 73c:	8c 01       	movw	r16, r24
 73e:	16 95       	lsr	r17
 740:	07 95       	ror	r16
 742:	64 2f       	mov	r22, r20
 744:	80 2f       	mov	r24, r16
 746:	92 df       	rcall	.-220    	; 0x66c <GLCD_1DigitDecimal>
 748:	48 2f       	mov	r20, r24
 74a:	24 e6       	ldi	r18, 0x64	; 100
 74c:	20 9f       	mul	r18, r16
 74e:	c0 01       	movw	r24, r0
 750:	21 9f       	mul	r18, r17
 752:	90 0d       	add	r25, r0
 754:	11 24       	eor	r1, r1
 756:	c8 1b       	sub	r28, r24
 758:	d9 0b       	sbc	r29, r25
 75a:	9e 01       	movw	r18, r28
 75c:	ad ec       	ldi	r26, 0xCD	; 205
 75e:	bc ec       	ldi	r27, 0xCC	; 204
 760:	d1 d2       	rcall	.+1442   	; 0xd04 <__umulhisi3>
 762:	8c 01       	movw	r16, r24
 764:	16 95       	lsr	r17
 766:	07 95       	ror	r16
 768:	16 95       	lsr	r17
 76a:	07 95       	ror	r16
 76c:	16 95       	lsr	r17
 76e:	07 95       	ror	r16
 770:	64 2f       	mov	r22, r20
 772:	80 2f       	mov	r24, r16
 774:	7b df       	rcall	.-266    	; 0x66c <GLCD_1DigitDecimal>
 776:	c8 01       	movw	r24, r16
 778:	88 0f       	add	r24, r24
 77a:	99 1f       	adc	r25, r25
 77c:	00 0f       	add	r16, r16
 77e:	11 1f       	adc	r17, r17
 780:	00 0f       	add	r16, r16
 782:	11 1f       	adc	r17, r17
 784:	00 0f       	add	r16, r16
 786:	11 1f       	adc	r17, r17
 788:	08 0f       	add	r16, r24
 78a:	19 1f       	adc	r17, r25
 78c:	ce 01       	movw	r24, r28
 78e:	80 1b       	sub	r24, r16
 790:	91 0b       	sbc	r25, r17
 792:	80 5d       	subi	r24, 0xD0	; 208
 794:	e4 dd       	rcall	.-1080   	; 0x35e <lcd_char>
 796:	df 91       	pop	r29
 798:	cf 91       	pop	r28
 79a:	1f 91       	pop	r17
 79c:	0f 91       	pop	r16
 79e:	ff 90       	pop	r15
 7a0:	ef 90       	pop	r14
 7a2:	08 95       	ret

000007a4 <getAbit>:
 7a4:	21 e0       	ldi	r18, 0x01	; 1
 7a6:	30 e0       	ldi	r19, 0x00	; 0
 7a8:	06 2e       	mov	r0, r22
 7aa:	02 c0       	rjmp	.+4      	; 0x7b0 <getAbit+0xc>
 7ac:	22 0f       	add	r18, r18
 7ae:	33 1f       	adc	r19, r19
 7b0:	0a 94       	dec	r0
 7b2:	e2 f7       	brpl	.-8      	; 0x7ac <getAbit+0x8>
 7b4:	90 e0       	ldi	r25, 0x00	; 0
 7b6:	82 23       	and	r24, r18
 7b8:	93 23       	and	r25, r19
 7ba:	02 c0       	rjmp	.+4      	; 0x7c0 <getAbit+0x1c>
 7bc:	95 95       	asr	r25
 7be:	87 95       	ror	r24
 7c0:	6a 95       	dec	r22
 7c2:	e2 f7       	brpl	.-8      	; 0x7bc <getAbit+0x18>
 7c4:	08 95       	ret

000007c6 <GLCD_Draw>:
 7c6:	cf 93       	push	r28
 7c8:	df 93       	push	r29
 7ca:	80 34       	cpi	r24, 0x40	; 64
 7cc:	08 f0       	brcs	.+2      	; 0x7d0 <GLCD_Draw+0xa>
 7ce:	58 c0       	rjmp	.+176    	; 0x880 <GLCD_Draw+0xba>
 7d0:	66 23       	and	r22, r22
 7d2:	0c f4       	brge	.+2      	; 0x7d6 <GLCD_Draw+0x10>
 7d4:	55 c0       	rjmp	.+170    	; 0x880 <GLCD_Draw+0xba>
 7d6:	d8 2f       	mov	r29, r24
 7d8:	d6 95       	lsr	r29
 7da:	d6 95       	lsr	r29
 7dc:	d6 95       	lsr	r29
 7de:	87 70       	andi	r24, 0x07	; 7
 7e0:	71 f0       	breq	.+28     	; 0x7fe <GLCD_Draw+0x38>
 7e2:	81 30       	cpi	r24, 0x01	; 1
 7e4:	71 f0       	breq	.+28     	; 0x802 <GLCD_Draw+0x3c>
 7e6:	82 30       	cpi	r24, 0x02	; 2
 7e8:	71 f0       	breq	.+28     	; 0x806 <GLCD_Draw+0x40>
 7ea:	83 30       	cpi	r24, 0x03	; 3
 7ec:	71 f0       	breq	.+28     	; 0x80a <GLCD_Draw+0x44>
 7ee:	84 30       	cpi	r24, 0x04	; 4
 7f0:	71 f0       	breq	.+28     	; 0x80e <GLCD_Draw+0x48>
 7f2:	85 30       	cpi	r24, 0x05	; 5
 7f4:	71 f0       	breq	.+28     	; 0x812 <GLCD_Draw+0x4c>
 7f6:	86 30       	cpi	r24, 0x06	; 6
 7f8:	71 f4       	brne	.+28     	; 0x816 <GLCD_Draw+0x50>
 7fa:	80 e4       	ldi	r24, 0x40	; 64
 7fc:	0d c0       	rjmp	.+26     	; 0x818 <GLCD_Draw+0x52>
 7fe:	81 e0       	ldi	r24, 0x01	; 1
 800:	0b c0       	rjmp	.+22     	; 0x818 <GLCD_Draw+0x52>
 802:	82 e0       	ldi	r24, 0x02	; 2
 804:	09 c0       	rjmp	.+18     	; 0x818 <GLCD_Draw+0x52>
 806:	84 e0       	ldi	r24, 0x04	; 4
 808:	07 c0       	rjmp	.+14     	; 0x818 <GLCD_Draw+0x52>
 80a:	88 e0       	ldi	r24, 0x08	; 8
 80c:	05 c0       	rjmp	.+10     	; 0x818 <GLCD_Draw+0x52>
 80e:	80 e1       	ldi	r24, 0x10	; 16
 810:	03 c0       	rjmp	.+6      	; 0x818 <GLCD_Draw+0x52>
 812:	80 e2       	ldi	r24, 0x20	; 32
 814:	01 c0       	rjmp	.+2      	; 0x818 <GLCD_Draw+0x52>
 816:	80 e8       	ldi	r24, 0x80	; 128
 818:	45 2b       	or	r20, r21
 81a:	69 f4       	brne	.+26     	; 0x836 <GLCD_Draw+0x70>
 81c:	80 95       	com	r24
 81e:	90 e8       	ldi	r25, 0x80	; 128
 820:	d9 9f       	mul	r29, r25
 822:	f0 01       	movw	r30, r0
 824:	11 24       	eor	r1, r1
 826:	e7 5a       	subi	r30, 0xA7	; 167
 828:	f4 4f       	sbci	r31, 0xF4	; 244
 82a:	e6 0f       	add	r30, r22
 82c:	f1 1d       	adc	r31, r1
 82e:	90 81       	ld	r25, Z
 830:	89 23       	and	r24, r25
 832:	80 83       	st	Z, r24
 834:	0b c0       	rjmp	.+22     	; 0x84c <GLCD_Draw+0x86>
 836:	90 e8       	ldi	r25, 0x80	; 128
 838:	d9 9f       	mul	r29, r25
 83a:	f0 01       	movw	r30, r0
 83c:	11 24       	eor	r1, r1
 83e:	e7 5a       	subi	r30, 0xA7	; 167
 840:	f4 4f       	sbci	r31, 0xF4	; 244
 842:	e6 0f       	add	r30, r22
 844:	f1 1d       	adc	r31, r1
 846:	90 81       	ld	r25, Z
 848:	89 2b       	or	r24, r25
 84a:	80 83       	st	Z, r24
 84c:	c6 2f       	mov	r28, r22
 84e:	8d 2f       	mov	r24, r29
 850:	db dd       	rcall	.-1098   	; 0x408 <GLCD_Axis_xy>
 852:	c0 34       	cpi	r28, 0x40	; 64
 854:	58 f4       	brcc	.+22     	; 0x86c <GLCD_Draw+0xa6>
 856:	80 e8       	ldi	r24, 0x80	; 128
 858:	d8 9f       	mul	r29, r24
 85a:	f0 01       	movw	r30, r0
 85c:	11 24       	eor	r1, r1
 85e:	e7 5a       	subi	r30, 0xA7	; 167
 860:	f4 4f       	sbci	r31, 0xF4	; 244
 862:	ec 0f       	add	r30, r28
 864:	f1 1d       	adc	r31, r1
 866:	80 81       	ld	r24, Z
 868:	ef dc       	rcall	.-1570   	; 0x248 <datal>
 86a:	0a c0       	rjmp	.+20     	; 0x880 <GLCD_Draw+0xba>
 86c:	90 e8       	ldi	r25, 0x80	; 128
 86e:	d9 9f       	mul	r29, r25
 870:	f0 01       	movw	r30, r0
 872:	11 24       	eor	r1, r1
 874:	e7 5a       	subi	r30, 0xA7	; 167
 876:	f4 4f       	sbci	r31, 0xF4	; 244
 878:	ec 0f       	add	r30, r28
 87a:	f1 1d       	adc	r31, r1
 87c:	80 81       	ld	r24, Z
 87e:	fd dc       	rcall	.-1542   	; 0x27a <datar>
 880:	df 91       	pop	r29
 882:	cf 91       	pop	r28
 884:	08 95       	ret

00000886 <glcd_draw_bitmap>:
 886:	9f 92       	push	r9
 888:	af 92       	push	r10
 88a:	bf 92       	push	r11
 88c:	cf 92       	push	r12
 88e:	df 92       	push	r13
 890:	ef 92       	push	r14
 892:	ff 92       	push	r15
 894:	0f 93       	push	r16
 896:	1f 93       	push	r17
 898:	cf 93       	push	r28
 89a:	df 93       	push	r29
 89c:	7c 01       	movw	r14, r24
 89e:	a6 2e       	mov	r10, r22
 8a0:	b4 2e       	mov	r11, r20
 8a2:	92 2e       	mov	r9, r18
 8a4:	c0 e0       	ldi	r28, 0x00	; 0
 8a6:	d0 e0       	ldi	r29, 0x00	; 0
 8a8:	c1 2c       	mov	r12, r1
 8aa:	1f c0       	rjmp	.+62     	; 0x8ea <glcd_draw_bitmap+0x64>
 8ac:	20 97       	sbiw	r28, 0x00	; 0
 8ae:	29 f4       	brne	.+10     	; 0x8ba <glcd_draw_bitmap+0x34>
 8b0:	c7 01       	movw	r24, r14
 8b2:	01 96       	adiw	r24, 0x01	; 1
 8b4:	f7 01       	movw	r30, r14
 8b6:	d4 90       	lpm	r13, Z
 8b8:	7c 01       	movw	r14, r24
 8ba:	67 e0       	ldi	r22, 0x07	; 7
 8bc:	70 e0       	ldi	r23, 0x00	; 0
 8be:	6c 1b       	sub	r22, r28
 8c0:	7d 0b       	sbc	r23, r29
 8c2:	8d 2d       	mov	r24, r13
 8c4:	6f df       	rcall	.-290    	; 0x7a4 <getAbit>
 8c6:	ac 01       	movw	r20, r24
 8c8:	61 2f       	mov	r22, r17
 8ca:	6b 0d       	add	r22, r11
 8cc:	8c 2d       	mov	r24, r12
 8ce:	8a 0d       	add	r24, r10
 8d0:	7a df       	rcall	.-268    	; 0x7c6 <GLCD_Draw>
 8d2:	21 96       	adiw	r28, 0x01	; 1
 8d4:	c8 30       	cpi	r28, 0x08	; 8
 8d6:	d1 05       	cpc	r29, r1
 8d8:	11 f4       	brne	.+4      	; 0x8de <glcd_draw_bitmap+0x58>
 8da:	c0 e0       	ldi	r28, 0x00	; 0
 8dc:	d0 e0       	ldi	r29, 0x00	; 0
 8de:	1f 5f       	subi	r17, 0xFF	; 255
 8e0:	01 c0       	rjmp	.+2      	; 0x8e4 <glcd_draw_bitmap+0x5e>
 8e2:	10 e0       	ldi	r17, 0x00	; 0
 8e4:	10 17       	cp	r17, r16
 8e6:	10 f3       	brcs	.-60     	; 0x8ac <glcd_draw_bitmap+0x26>
 8e8:	c3 94       	inc	r12
 8ea:	c9 14       	cp	r12, r9
 8ec:	d0 f3       	brcs	.-12     	; 0x8e2 <glcd_draw_bitmap+0x5c>
 8ee:	df 91       	pop	r29
 8f0:	cf 91       	pop	r28
 8f2:	1f 91       	pop	r17
 8f4:	0f 91       	pop	r16
 8f6:	ff 90       	pop	r15
 8f8:	ef 90       	pop	r14
 8fa:	df 90       	pop	r13
 8fc:	cf 90       	pop	r12
 8fe:	bf 90       	pop	r11
 900:	af 90       	pop	r10
 902:	9f 90       	pop	r9
 904:	08 95       	ret

00000906 <speedDelay>:
 906:	80 91 4a 0b 	lds	r24, 0x0B4A	; 0x800b4a <__data_end>
 90a:	90 91 4b 0b 	lds	r25, 0x0B4B	; 0x800b4b <__data_end+0x1>
 90e:	00 97       	sbiw	r24, 0x00	; 0
 910:	51 f4       	brne	.+20     	; 0x926 <speedDelay+0x20>
 912:	2f ef       	ldi	r18, 0xFF	; 255
 914:	80 e7       	ldi	r24, 0x70	; 112
 916:	92 e0       	ldi	r25, 0x02	; 2
 918:	21 50       	subi	r18, 0x01	; 1
 91a:	80 40       	sbci	r24, 0x00	; 0
 91c:	90 40       	sbci	r25, 0x00	; 0
 91e:	e1 f7       	brne	.-8      	; 0x918 <speedDelay+0x12>
 920:	00 c0       	rjmp	.+0      	; 0x922 <speedDelay+0x1c>
 922:	00 00       	nop
 924:	08 95       	ret
 926:	01 97       	sbiw	r24, 0x01	; 1
 928:	51 f4       	brne	.+20     	; 0x93e <speedDelay+0x38>
 92a:	2f eb       	ldi	r18, 0xBF	; 191
 92c:	84 ed       	ldi	r24, 0xD4	; 212
 92e:	91 e0       	ldi	r25, 0x01	; 1
 930:	21 50       	subi	r18, 0x01	; 1
 932:	80 40       	sbci	r24, 0x00	; 0
 934:	90 40       	sbci	r25, 0x00	; 0
 936:	e1 f7       	brne	.-8      	; 0x930 <speedDelay+0x2a>
 938:	00 c0       	rjmp	.+0      	; 0x93a <speedDelay+0x34>
 93a:	00 00       	nop
 93c:	08 95       	ret
 93e:	2f e7       	ldi	r18, 0x7F	; 127
 940:	88 e3       	ldi	r24, 0x38	; 56
 942:	91 e0       	ldi	r25, 0x01	; 1
 944:	21 50       	subi	r18, 0x01	; 1
 946:	80 40       	sbci	r24, 0x00	; 0
 948:	90 40       	sbci	r25, 0x00	; 0
 94a:	e1 f7       	brne	.-8      	; 0x944 <speedDelay+0x3e>
 94c:	00 c0       	rjmp	.+0      	; 0x94e <speedDelay+0x48>
 94e:	00 00       	nop
 950:	08 95       	ret

00000952 <Init_Timer0>:
 952:	87 e0       	ldi	r24, 0x07	; 7
 954:	83 bf       	out	0x33, r24	; 51
 956:	12 be       	out	0x32, r1	; 50
 958:	81 e0       	ldi	r24, 0x01	; 1
 95a:	87 bf       	out	0x37, r24	; 55
 95c:	08 95       	ret

0000095e <Port_init>:
 95e:	1b ba       	out	0x1b, r1	; 27
 960:	8f ef       	ldi	r24, 0xFF	; 255
 962:	8a bb       	out	0x1a, r24	; 26
 964:	88 bb       	out	0x18, r24	; 24
 966:	87 bb       	out	0x17, r24	; 23
 968:	15 ba       	out	0x15, r1	; 21
 96a:	90 ef       	ldi	r25, 0xF0	; 240
 96c:	94 bb       	out	0x14, r25	; 20
 96e:	12 ba       	out	0x12, r1	; 18
 970:	11 ba       	out	0x11, r1	; 17
 972:	13 b8       	out	0x03, r1	; 3
 974:	82 b9       	out	0x02, r24	; 2
 976:	10 92 62 00 	sts	0x0062, r1	; 0x800062 <__TEXT_REGION_LENGTH__+0x7e0062>
 97a:	10 92 61 00 	sts	0x0061, r1	; 0x800061 <__TEXT_REGION_LENGTH__+0x7e0061>
 97e:	08 95       	ret

00000980 <Interrupt_init>:
 980:	83 e0       	ldi	r24, 0x03	; 3
 982:	89 bf       	out	0x39, r24	; 57
 984:	8a e0       	ldi	r24, 0x0A	; 10
 986:	80 93 6a 00 	sts	0x006A, r24	; 0x80006a <__TEXT_REGION_LENGTH__+0x7e006a>
 98a:	8f b7       	in	r24, 0x3f	; 63
 98c:	80 68       	ori	r24, 0x80	; 128
 98e:	8f bf       	out	0x3f, r24	; 63
 990:	08 95       	ret

00000992 <init_devices>:
 992:	f8 94       	cli
 994:	e4 df       	rcall	.-56     	; 0x95e <Port_init>
 996:	bc dc       	rcall	.-1672   	; 0x310 <lcd_init>
 998:	dc df       	rcall	.-72     	; 0x952 <Init_Timer0>
 99a:	f2 df       	rcall	.-28     	; 0x980 <Interrupt_init>
 99c:	78 94       	sei
 99e:	48 e2       	ldi	r20, 0x28	; 40
 9a0:	52 e0       	ldi	r21, 0x02	; 2
 9a2:	64 e0       	ldi	r22, 0x04	; 4
 9a4:	70 e0       	ldi	r23, 0x00	; 0
 9a6:	8e ec       	ldi	r24, 0xCE	; 206
 9a8:	96 e0       	ldi	r25, 0x06	; 6
 9aa:	cf d1       	rcall	.+926    	; 0xd4a <memset>
 9ac:	40 e1       	ldi	r20, 0x10	; 16
 9ae:	52 e0       	ldi	r21, 0x02	; 2
 9b0:	61 e0       	ldi	r22, 0x01	; 1
 9b2:	70 e0       	ldi	r23, 0x00	; 0
 9b4:	8e eb       	ldi	r24, 0xBE	; 190
 9b6:	94 e0       	ldi	r25, 0x04	; 4
 9b8:	c8 d1       	rcall	.+912    	; 0xd4a <memset>
 9ba:	40 e1       	ldi	r20, 0x10	; 16
 9bc:	52 e0       	ldi	r21, 0x02	; 2
 9be:	62 e0       	ldi	r22, 0x02	; 2
 9c0:	70 e0       	ldi	r23, 0x00	; 0
 9c2:	8e ea       	ldi	r24, 0xAE	; 174
 9c4:	92 e0       	ldi	r25, 0x02	; 2
 9c6:	c1 d1       	rcall	.+898    	; 0xd4a <memset>
 9c8:	4a e4       	ldi	r20, 0x4A	; 74
 9ca:	51 e0       	ldi	r21, 0x01	; 1
 9cc:	63 e0       	ldi	r22, 0x03	; 3
 9ce:	70 e0       	ldi	r23, 0x00	; 0
 9d0:	84 e6       	ldi	r24, 0x64	; 100
 9d2:	91 e0       	ldi	r25, 0x01	; 1
 9d4:	ba d1       	rcall	.+884    	; 0xd4a <memset>
 9d6:	44 e6       	ldi	r20, 0x64	; 100
 9d8:	50 e0       	ldi	r21, 0x00	; 0
 9da:	65 e0       	ldi	r22, 0x05	; 5
 9dc:	70 e0       	ldi	r23, 0x00	; 0
 9de:	80 e0       	ldi	r24, 0x00	; 0
 9e0:	91 e0       	ldi	r25, 0x01	; 1
 9e2:	b3 c1       	rjmp	.+870    	; 0xd4a <memset>
 9e4:	08 95       	ret

000009e6 <__vector_1>:
 9e6:	1f 92       	push	r1
 9e8:	0f 92       	push	r0
 9ea:	0f b6       	in	r0, 0x3f	; 63
 9ec:	0f 92       	push	r0
 9ee:	11 24       	eor	r1, r1
 9f0:	8f 93       	push	r24
 9f2:	9f 93       	push	r25
 9f4:	80 91 50 0b 	lds	r24, 0x0B50	; 0x800b50 <gameState>
 9f8:	81 30       	cpi	r24, 0x01	; 1
 9fa:	11 f0       	breq	.+4      	; 0xa00 <__vector_1+0x1a>
 9fc:	84 30       	cpi	r24, 0x04	; 4
 9fe:	49 f4       	brne	.+18     	; 0xa12 <__vector_1+0x2c>
 a00:	8b e4       	ldi	r24, 0x4B	; 75
 a02:	9d e1       	ldi	r25, 0x1D	; 29
 a04:	01 97       	sbiw	r24, 0x01	; 1
 a06:	f1 f7       	brne	.-4      	; 0xa04 <__vector_1+0x1e>
 a08:	00 c0       	rjmp	.+0      	; 0xa0a <__vector_1+0x24>
 a0a:	00 00       	nop
 a0c:	83 e0       	ldi	r24, 0x03	; 3
 a0e:	80 93 50 0b 	sts	0x0B50, r24	; 0x800b50 <gameState>
 a12:	9f 91       	pop	r25
 a14:	8f 91       	pop	r24
 a16:	0f 90       	pop	r0
 a18:	0f be       	out	0x3f, r0	; 63
 a1a:	0f 90       	pop	r0
 a1c:	1f 90       	pop	r1
 a1e:	18 95       	reti

00000a20 <printPoint>:
 a20:	41 ed       	ldi	r20, 0xD1	; 209
 a22:	5a e0       	ldi	r21, 0x0A	; 10
 a24:	60 e0       	ldi	r22, 0x00	; 0
 a26:	80 e0       	ldi	r24, 0x00	; 0
 a28:	d3 dc       	rcall	.-1626   	; 0x3d0 <lcd_string>
 a2a:	80 91 4c 0b 	lds	r24, 0x0B4C	; 0x800b4c <times>
 a2e:	90 91 4d 0b 	lds	r25, 0x0B4D	; 0x800b4d <times+0x1>
 a32:	36 de       	rcall	.-916    	; 0x6a0 <GLCD_4DigitDecimal>
 a34:	46 e1       	ldi	r20, 0x16	; 22
 a36:	5b e0       	ldi	r21, 0x0B	; 11
 a38:	6a e0       	ldi	r22, 0x0A	; 10
 a3a:	80 e0       	ldi	r24, 0x00	; 0
 a3c:	c9 dc       	rcall	.-1646   	; 0x3d0 <lcd_string>
 a3e:	80 91 4e 0b 	lds	r24, 0x0B4E	; 0x800b4e <point>
 a42:	90 91 4f 0b 	lds	r25, 0x0B4F	; 0x800b4f <point+0x1>
 a46:	2c de       	rcall	.-936    	; 0x6a0 <GLCD_4DigitDecimal>
 a48:	47 ed       	ldi	r20, 0xD7	; 215
 a4a:	5a e0       	ldi	r21, 0x0A	; 10
 a4c:	60 e0       	ldi	r22, 0x00	; 0
 a4e:	81 e0       	ldi	r24, 0x01	; 1
 a50:	bf cc       	rjmp	.-1666   	; 0x3d0 <lcd_string>
 a52:	08 95       	ret

00000a54 <__vector_16>:
 a54:	1f 92       	push	r1
 a56:	0f 92       	push	r0
 a58:	0f b6       	in	r0, 0x3f	; 63
 a5a:	0f 92       	push	r0
 a5c:	11 24       	eor	r1, r1
 a5e:	0b b6       	in	r0, 0x3b	; 59
 a60:	0f 92       	push	r0
 a62:	2f 93       	push	r18
 a64:	3f 93       	push	r19
 a66:	4f 93       	push	r20
 a68:	5f 93       	push	r21
 a6a:	6f 93       	push	r22
 a6c:	7f 93       	push	r23
 a6e:	8f 93       	push	r24
 a70:	9f 93       	push	r25
 a72:	af 93       	push	r26
 a74:	bf 93       	push	r27
 a76:	ef 93       	push	r30
 a78:	ff 93       	push	r31
 a7a:	80 91 50 0b 	lds	r24, 0x0B50	; 0x800b50 <gameState>
 a7e:	81 30       	cpi	r24, 0x01	; 1
 a80:	11 f0       	breq	.+4      	; 0xa86 <__vector_16+0x32>
 a82:	84 30       	cpi	r24, 0x04	; 4
 a84:	31 f5       	brne	.+76     	; 0xad2 <__vector_16+0x7e>
 a86:	80 91 52 0b 	lds	r24, 0x0B52	; 0x800b52 <cnt>
 a8a:	8f 5f       	subi	r24, 0xFF	; 255
 a8c:	80 93 52 0b 	sts	0x0B52, r24	; 0x800b52 <cnt>
 a90:	8d 32       	cpi	r24, 0x2D	; 45
 a92:	f9 f4       	brne	.+62     	; 0xad2 <__vector_16+0x7e>
 a94:	80 91 4c 0b 	lds	r24, 0x0B4C	; 0x800b4c <times>
 a98:	90 91 4d 0b 	lds	r25, 0x0B4D	; 0x800b4d <times+0x1>
 a9c:	01 96       	adiw	r24, 0x01	; 1
 a9e:	90 93 4d 0b 	sts	0x0B4D, r25	; 0x800b4d <times+0x1>
 aa2:	80 93 4c 0b 	sts	0x0B4C, r24	; 0x800b4c <times>
 aa6:	80 91 4e 0b 	lds	r24, 0x0B4E	; 0x800b4e <point>
 aaa:	90 91 4f 0b 	lds	r25, 0x0B4F	; 0x800b4f <point+0x1>
 aae:	02 96       	adiw	r24, 0x02	; 2
 ab0:	90 93 4f 0b 	sts	0x0B4F, r25	; 0x800b4f <point+0x1>
 ab4:	80 93 4e 0b 	sts	0x0B4E, r24	; 0x800b4e <point>
 ab8:	b3 df       	rcall	.-154    	; 0xa20 <printPoint>
 aba:	10 92 52 0b 	sts	0x0B52, r1	; 0x800b52 <cnt>
 abe:	80 91 4c 0b 	lds	r24, 0x0B4C	; 0x800b4c <times>
 ac2:	90 91 4d 0b 	lds	r25, 0x0B4D	; 0x800b4d <times+0x1>
 ac6:	84 3f       	cpi	r24, 0xF4	; 244
 ac8:	91 40       	sbci	r25, 0x01	; 1
 aca:	19 f4       	brne	.+6      	; 0xad2 <__vector_16+0x7e>
 acc:	84 e0       	ldi	r24, 0x04	; 4
 ace:	80 93 50 0b 	sts	0x0B50, r24	; 0x800b50 <gameState>
 ad2:	ff 91       	pop	r31
 ad4:	ef 91       	pop	r30
 ad6:	bf 91       	pop	r27
 ad8:	af 91       	pop	r26
 ada:	9f 91       	pop	r25
 adc:	8f 91       	pop	r24
 ade:	7f 91       	pop	r23
 ae0:	6f 91       	pop	r22
 ae2:	5f 91       	pop	r21
 ae4:	4f 91       	pop	r20
 ae6:	3f 91       	pop	r19
 ae8:	2f 91       	pop	r18
 aea:	0f 90       	pop	r0
 aec:	0b be       	out	0x3b, r0	; 59
 aee:	0f 90       	pop	r0
 af0:	0f be       	out	0x3f, r0	; 63
 af2:	0f 90       	pop	r0
 af4:	1f 90       	pop	r1
 af6:	18 95       	reti

00000af8 <printEndPage>:
 af8:	f2 db       	rcall	.-2076   	; 0x2de <lcd_clear>
 afa:	80 91 50 0b 	lds	r24, 0x0B50	; 0x800b50 <gameState>
 afe:	82 30       	cpi	r24, 0x02	; 2
 b00:	81 f4       	brne	.+32     	; 0xb22 <printEndPage+0x2a>
 b02:	4c ee       	ldi	r20, 0xEC	; 236
 b04:	5a e0       	ldi	r21, 0x0A	; 10
 b06:	61 e0       	ldi	r22, 0x01	; 1
 b08:	81 e0       	ldi	r24, 0x01	; 1
 b0a:	62 dc       	rcall	.-1852   	; 0x3d0 <lcd_string>
 b0c:	4b ef       	ldi	r20, 0xFB	; 251
 b0e:	5a e0       	ldi	r21, 0x0A	; 10
 b10:	64 e0       	ldi	r22, 0x04	; 4
 b12:	82 e0       	ldi	r24, 0x02	; 2
 b14:	5d dc       	rcall	.-1862   	; 0x3d0 <lcd_string>
 b16:	47 ed       	ldi	r20, 0xD7	; 215
 b18:	5a e0       	ldi	r21, 0x0A	; 10
 b1a:	60 e0       	ldi	r22, 0x00	; 0
 b1c:	83 e0       	ldi	r24, 0x03	; 3
 b1e:	58 dc       	rcall	.-1872   	; 0x3d0 <lcd_string>
 b20:	0a c0       	rjmp	.+20     	; 0xb36 <printEndPage+0x3e>
 b22:	44 e0       	ldi	r20, 0x04	; 4
 b24:	5b e0       	ldi	r21, 0x0B	; 11
 b26:	64 e0       	ldi	r22, 0x04	; 4
 b28:	82 e0       	ldi	r24, 0x02	; 2
 b2a:	52 dc       	rcall	.-1884   	; 0x3d0 <lcd_string>
 b2c:	47 ed       	ldi	r20, 0xD7	; 215
 b2e:	5a e0       	ldi	r21, 0x0A	; 10
 b30:	60 e0       	ldi	r22, 0x00	; 0
 b32:	83 e0       	ldi	r24, 0x03	; 3
 b34:	4d dc       	rcall	.-1894   	; 0x3d0 <lcd_string>
 b36:	41 e1       	ldi	r20, 0x11	; 17
 b38:	5b e0       	ldi	r21, 0x0B	; 11
 b3a:	62 e0       	ldi	r22, 0x02	; 2
 b3c:	84 e0       	ldi	r24, 0x04	; 4
 b3e:	48 dc       	rcall	.-1904   	; 0x3d0 <lcd_string>
 b40:	80 91 4e 0b 	lds	r24, 0x0B4E	; 0x800b4e <point>
 b44:	90 91 4f 0b 	lds	r25, 0x0B4F	; 0x800b4f <point+0x1>
 b48:	ab dd       	rcall	.-1194   	; 0x6a0 <GLCD_4DigitDecimal>
 b4a:	4d e1       	ldi	r20, 0x1D	; 29
 b4c:	5b e0       	ldi	r21, 0x0B	; 11
 b4e:	64 e0       	ldi	r22, 0x04	; 4
 b50:	87 e0       	ldi	r24, 0x07	; 7
 b52:	3e dc       	rcall	.-1924   	; 0x3d0 <lcd_string>
 b54:	10 92 50 0b 	sts	0x0B50, r1	; 0x800b50 <gameState>
 b58:	08 95       	ret

00000b5a <printCactus>:
 b5a:	0f 93       	push	r16
 b5c:	00 e1       	ldi	r16, 0x10	; 16
 b5e:	2b e1       	ldi	r18, 0x1B	; 27
 b60:	48 2f       	mov	r20, r24
 b62:	68 e2       	ldi	r22, 0x28	; 40
 b64:	80 ed       	ldi	r24, 0xD0	; 208
 b66:	90 e0       	ldi	r25, 0x00	; 0
 b68:	8e de       	rcall	.-740    	; 0x886 <glcd_draw_bitmap>
 b6a:	0f 91       	pop	r16
 b6c:	08 95       	ret

00000b6e <printDino>:
 b6e:	0f 93       	push	r16
 b70:	66 e2       	ldi	r22, 0x26	; 38
 b72:	68 1b       	sub	r22, r24
 b74:	08 e1       	ldi	r16, 0x18	; 24
 b76:	2a e1       	ldi	r18, 0x1A	; 26
 b78:	40 e0       	ldi	r20, 0x00	; 0
 b7a:	86 e0       	ldi	r24, 0x06	; 6
 b7c:	91 e0       	ldi	r25, 0x01	; 1
 b7e:	83 de       	rcall	.-762    	; 0x886 <glcd_draw_bitmap>
 b80:	0f 91       	pop	r16
 b82:	08 95       	ret

00000b84 <printInitScreen>:
 b84:	ac db       	rcall	.-2216   	; 0x2de <lcd_clear>
 b86:	4b e2       	ldi	r20, 0x2B	; 43
 b88:	5b e0       	ldi	r21, 0x0B	; 11
 b8a:	60 e0       	ldi	r22, 0x00	; 0
 b8c:	81 e0       	ldi	r24, 0x01	; 1
 b8e:	20 dc       	rcall	.-1984   	; 0x3d0 <lcd_string>
 b90:	47 ed       	ldi	r20, 0xD7	; 215
 b92:	5a e0       	ldi	r21, 0x0A	; 10
 b94:	60 e0       	ldi	r22, 0x00	; 0
 b96:	82 e0       	ldi	r24, 0x02	; 2
 b98:	1b dc       	rcall	.-1994   	; 0x3d0 <lcd_string>
 b9a:	4f e3       	ldi	r20, 0x3F	; 63
 b9c:	5b e0       	ldi	r21, 0x0B	; 11
 b9e:	6a e0       	ldi	r22, 0x0A	; 10
 ba0:	83 e0       	ldi	r24, 0x03	; 3
 ba2:	16 dc       	rcall	.-2004   	; 0x3d0 <lcd_string>
 ba4:	2b e7       	ldi	r18, 0x7B	; 123
 ba6:	41 e2       	ldi	r20, 0x21	; 33
 ba8:	6e e3       	ldi	r22, 0x3E	; 62
 baa:	81 e2       	ldi	r24, 0x21	; 33
 bac:	b1 dc       	rcall	.-1694   	; 0x510 <GLCD_Line>
 bae:	80 e0       	ldi	r24, 0x00	; 0
 bb0:	de df       	rcall	.-68     	; 0xb6e <printDino>
 bb2:	86 e4       	ldi	r24, 0x46	; 70
 bb4:	d2 df       	rcall	.-92     	; 0xb5a <printCactus>
 bb6:	2c e8       	ldi	r18, 0x8C	; 140
 bb8:	4c e3       	ldi	r20, 0x3C	; 60
 bba:	60 e0       	ldi	r22, 0x00	; 0
 bbc:	8c e3       	ldi	r24, 0x3C	; 60
 bbe:	a8 cc       	rjmp	.-1712   	; 0x510 <GLCD_Line>
 bc0:	08 95       	ret

00000bc2 <gameInit>:
 bc2:	10 92 52 0b 	sts	0x0B52, r1	; 0x800b52 <cnt>
 bc6:	10 92 4d 0b 	sts	0x0B4D, r1	; 0x800b4d <times+0x1>
 bca:	10 92 4c 0b 	sts	0x0B4C, r1	; 0x800b4c <times>
 bce:	10 92 4f 0b 	sts	0x0B4F, r1	; 0x800b4f <point+0x1>
 bd2:	10 92 4e 0b 	sts	0x0B4E, r1	; 0x800b4e <point>
 bd6:	83 db       	rcall	.-2298   	; 0x2de <lcd_clear>
 bd8:	87 dc       	rcall	.-1778   	; 0x4e8 <ScreenBuffer_clear>
 bda:	22 df       	rcall	.-444    	; 0xa20 <printPoint>
 bdc:	80 e0       	ldi	r24, 0x00	; 0
 bde:	c7 df       	rcall	.-114    	; 0xb6e <printDino>
 be0:	2c e8       	ldi	r18, 0x8C	; 140
 be2:	4c e3       	ldi	r20, 0x3C	; 60
 be4:	60 e0       	ldi	r22, 0x00	; 0
 be6:	8c e3       	ldi	r24, 0x3C	; 60
 be8:	93 dc       	rcall	.-1754   	; 0x510 <GLCD_Line>
 bea:	81 e0       	ldi	r24, 0x01	; 1
 bec:	80 93 50 0b 	sts	0x0B50, r24	; 0x800b50 <gameState>
 bf0:	08 95       	ret

00000bf2 <main>:
 bf2:	cf de       	rcall	.-610    	; 0x992 <init_devices>
 bf4:	c7 df       	rcall	.-114    	; 0xb84 <printInitScreen>
 bf6:	87 99       	sbic	0x10, 7	; 16
 bf8:	fe cf       	rjmp	.-4      	; 0xbf6 <main+0x4>
 bfa:	e3 df       	rcall	.-58     	; 0xbc2 <gameInit>
 bfc:	01 c0       	rjmp	.+2      	; 0xc00 <main+0xe>
 bfe:	83 de       	rcall	.-762    	; 0x906 <speedDelay>
 c00:	80 91 50 0b 	lds	r24, 0x0B50	; 0x800b50 <gameState>
 c04:	81 30       	cpi	r24, 0x01	; 1
 c06:	d9 f3       	breq	.-10     	; 0xbfe <main+0xc>
 c08:	84 30       	cpi	r24, 0x04	; 4
 c0a:	c9 f3       	breq	.-14     	; 0xbfe <main+0xc>
 c0c:	75 df       	rcall	.-278    	; 0xaf8 <printEndPage>
 c0e:	f3 cf       	rjmp	.-26     	; 0xbf6 <main+0x4>

00000c10 <printDinoAttack>:
void printDinoAttack(void){
 c10:	0f 93       	push	r16
 c12:	1f 93       	push	r17
 c14:	cf 93       	push	r28
	glcd_draw_bitmap(attack, 32, 25, 32, 16);
 c16:	00 e1       	ldi	r16, 0x10	; 16
 c18:	20 e2       	ldi	r18, 0x20	; 32
 c1a:	49 e1       	ldi	r20, 0x19	; 25
 c1c:	60 e2       	ldi	r22, 0x20	; 32
 c1e:	8c e8       	ldi	r24, 0x8C	; 140
 c20:	90 e0       	ldi	r25, 0x00	; 0
 c22:	31 de       	rcall	.-926    	; 0x886 <glcd_draw_bitmap>
	
	uint8_t length = 40;
	for(int k = 0; k < 80; k++){
 c24:	00 e0       	ldi	r16, 0x00	; 0
 c26:	10 e0       	ldi	r17, 0x00	; 0
	glcd_draw_bitmap(boss, yy[y], 90, 30, 40);
}
void printDinoAttack(void){
	glcd_draw_bitmap(attack, 32, 25, 32, 16);
	
	uint8_t length = 40;
 c28:	c8 e2       	ldi	r28, 0x28	; 40
	for(int k = 0; k < 80; k++){
 c2a:	0e c0       	rjmp	.+28     	; 0xc48 <printDinoAttack+0x38>
		GLCD_Line(30, length, 70, length);
 c2c:	2c 2f       	mov	r18, r28
 c2e:	46 e4       	ldi	r20, 0x46	; 70
 c30:	6c 2f       	mov	r22, r28
 c32:	8e e1       	ldi	r24, 0x1E	; 30
 c34:	6d dc       	rcall	.-1830   	; 0x510 <GLCD_Line>
		length++;
 c36:	cf 5f       	subi	r28, 0xFF	; 255
	#else
		//round up by default
		__ticks_dc = (uint32_t)(ceil(fabs(__tmp)));
	#endif

	__builtin_avr_delay_cycles(__ticks_dc);
 c38:	83 ef       	ldi	r24, 0xF3	; 243
 c3a:	9e e7       	ldi	r25, 0x7E	; 126
 c3c:	01 97       	sbiw	r24, 0x01	; 1
 c3e:	f1 f7       	brne	.-4      	; 0xc3c <printDinoAttack+0x2c>
 c40:	00 c0       	rjmp	.+0      	; 0xc42 <printDinoAttack+0x32>
 c42:	00 00       	nop
}
void printDinoAttack(void){
	glcd_draw_bitmap(attack, 32, 25, 32, 16);
	
	uint8_t length = 40;
	for(int k = 0; k < 80; k++){
 c44:	0f 5f       	subi	r16, 0xFF	; 255
 c46:	1f 4f       	sbci	r17, 0xFF	; 255
 c48:	00 35       	cpi	r16, 0x50	; 80
 c4a:	11 05       	cpc	r17, r1
 c4c:	7c f3       	brlt	.-34     	; 0xc2c <printDinoAttack+0x1c>
		GLCD_Line(30, length, 70, length);
		length++;
		_delay_ms(130);
	}
}
 c4e:	cf 91       	pop	r28
 c50:	1f 91       	pop	r17
 c52:	0f 91       	pop	r16
 c54:	08 95       	ret

00000c56 <__vector_2>:
	}
}

//  
SIGNAL(INT1_vect)
{
 c56:	1f 92       	push	r1
 c58:	0f 92       	push	r0
 c5a:	0f b6       	in	r0, 0x3f	; 63
 c5c:	0f 92       	push	r0
 c5e:	11 24       	eor	r1, r1
 c60:	0b b6       	in	r0, 0x3b	; 59
 c62:	0f 92       	push	r0
 c64:	2f 93       	push	r18
 c66:	3f 93       	push	r19
 c68:	4f 93       	push	r20
 c6a:	5f 93       	push	r21
 c6c:	6f 93       	push	r22
 c6e:	7f 93       	push	r23
 c70:	8f 93       	push	r24
 c72:	9f 93       	push	r25
 c74:	af 93       	push	r26
 c76:	bf 93       	push	r27
 c78:	ef 93       	push	r30
 c7a:	ff 93       	push	r31
	if(gameState == running || gameState == bosstime){
 c7c:	80 91 50 0b 	lds	r24, 0x0B50	; 0x800b50 <gameState>
 c80:	81 30       	cpi	r24, 0x01	; 1
 c82:	11 f0       	breq	.+4      	; 0xc88 <__vector_2+0x32>
 c84:	84 30       	cpi	r24, 0x04	; 4
 c86:	c1 f4       	brne	.+48     	; 0xcb8 <__vector_2+0x62>
		if(point < usePoint)
 c88:	80 91 4e 0b 	lds	r24, 0x0B4E	; 0x800b4e <point>
 c8c:	90 91 4f 0b 	lds	r25, 0x0B4F	; 0x800b4f <point+0x1>
 c90:	84 36       	cpi	r24, 0x64	; 100
 c92:	91 05       	cpc	r25, r1
 c94:	88 f0       	brcs	.+34     	; 0xcb8 <__vector_2+0x62>
			return;
		point -= usePoint;
 c96:	84 56       	subi	r24, 0x64	; 100
 c98:	91 09       	sbc	r25, r1
 c9a:	90 93 4f 0b 	sts	0x0B4F, r25	; 0x800b4f <point+0x1>
 c9e:	80 93 4e 0b 	sts	0x0B4E, r24	; 0x800b4e <point>
		printPoint();
 ca2:	be de       	rcall	.-644    	; 0xa20 <printPoint>
		printDinoAttack();
 ca4:	b5 df       	rcall	.-150    	; 0xc10 <printDinoAttack>
 ca6:	8b e4       	ldi	r24, 0x4B	; 75
 ca8:	9d e1       	ldi	r25, 0x1D	; 29
 caa:	01 97       	sbiw	r24, 0x01	; 1
 cac:	f1 f7       	brne	.-4      	; 0xcaa <__vector_2+0x54>
 cae:	00 c0       	rjmp	.+0      	; 0xcb0 <__vector_2+0x5a>
 cb0:	00 00       	nop
 cb2:	82 e0       	ldi	r24, 0x02	; 2
		_delay_ms(30);
		gameState = win;
 cb4:	80 93 50 0b 	sts	0x0B50, r24	; 0x800b50 <gameState>
 cb8:	ff 91       	pop	r31
	}
}
 cba:	ef 91       	pop	r30
 cbc:	bf 91       	pop	r27
 cbe:	af 91       	pop	r26
 cc0:	9f 91       	pop	r25
 cc2:	8f 91       	pop	r24
 cc4:	7f 91       	pop	r23
 cc6:	6f 91       	pop	r22
 cc8:	5f 91       	pop	r21
 cca:	4f 91       	pop	r20
 ccc:	3f 91       	pop	r19
 cce:	2f 91       	pop	r18
 cd0:	0f 90       	pop	r0
 cd2:	0b be       	out	0x3b, r0	; 59
 cd4:	0f 90       	pop	r0
 cd6:	0f be       	out	0x3f, r0	; 63
 cd8:	0f 90       	pop	r0
 cda:	1f 90       	pop	r1
 cdc:	18 95       	reti

00000cde <__divmodhi4>:
 cde:	97 fb       	bst	r25, 7
 ce0:	07 2e       	mov	r0, r23
 ce2:	16 f4       	brtc	.+4      	; 0xce8 <__divmodhi4+0xa>
 ce4:	00 94       	com	r0
 ce6:	06 d0       	rcall	.+12     	; 0xcf4 <__divmodhi4_neg1>
 ce8:	77 fd       	sbrc	r23, 7
 cea:	08 d0       	rcall	.+16     	; 0xcfc <__divmodhi4_neg2>
 cec:	1a d0       	rcall	.+52     	; 0xd22 <__udivmodhi4>
 cee:	07 fc       	sbrc	r0, 7
 cf0:	05 d0       	rcall	.+10     	; 0xcfc <__divmodhi4_neg2>
 cf2:	3e f4       	brtc	.+14     	; 0xd02 <__divmodhi4_exit>

00000cf4 <__divmodhi4_neg1>:
 cf4:	90 95       	com	r25
 cf6:	81 95       	neg	r24
 cf8:	9f 4f       	sbci	r25, 0xFF	; 255
 cfa:	08 95       	ret

00000cfc <__divmodhi4_neg2>:
 cfc:	70 95       	com	r23
 cfe:	61 95       	neg	r22
 d00:	7f 4f       	sbci	r23, 0xFF	; 255

00000d02 <__divmodhi4_exit>:
 d02:	08 95       	ret

00000d04 <__umulhisi3>:
 d04:	a2 9f       	mul	r26, r18
 d06:	b0 01       	movw	r22, r0
 d08:	b3 9f       	mul	r27, r19
 d0a:	c0 01       	movw	r24, r0
 d0c:	a3 9f       	mul	r26, r19
 d0e:	70 0d       	add	r23, r0
 d10:	81 1d       	adc	r24, r1
 d12:	11 24       	eor	r1, r1
 d14:	91 1d       	adc	r25, r1
 d16:	b2 9f       	mul	r27, r18
 d18:	70 0d       	add	r23, r0
 d1a:	81 1d       	adc	r24, r1
 d1c:	11 24       	eor	r1, r1
 d1e:	91 1d       	adc	r25, r1
 d20:	08 95       	ret

00000d22 <__udivmodhi4>:
 d22:	aa 1b       	sub	r26, r26
 d24:	bb 1b       	sub	r27, r27
 d26:	51 e1       	ldi	r21, 0x11	; 17
 d28:	07 c0       	rjmp	.+14     	; 0xd38 <__udivmodhi4_ep>

00000d2a <__udivmodhi4_loop>:
 d2a:	aa 1f       	adc	r26, r26
 d2c:	bb 1f       	adc	r27, r27
 d2e:	a6 17       	cp	r26, r22
 d30:	b7 07       	cpc	r27, r23
 d32:	10 f0       	brcs	.+4      	; 0xd38 <__udivmodhi4_ep>
 d34:	a6 1b       	sub	r26, r22
 d36:	b7 0b       	sbc	r27, r23

00000d38 <__udivmodhi4_ep>:
 d38:	88 1f       	adc	r24, r24
 d3a:	99 1f       	adc	r25, r25
 d3c:	5a 95       	dec	r21
 d3e:	a9 f7       	brne	.-22     	; 0xd2a <__udivmodhi4_loop>
 d40:	80 95       	com	r24
 d42:	90 95       	com	r25
 d44:	bc 01       	movw	r22, r24
 d46:	cd 01       	movw	r24, r26
 d48:	08 95       	ret

00000d4a <memset>:
 d4a:	dc 01       	movw	r26, r24
 d4c:	01 c0       	rjmp	.+2      	; 0xd50 <memset+0x6>
 d4e:	6d 93       	st	X+, r22
 d50:	41 50       	subi	r20, 0x01	; 1
 d52:	50 40       	sbci	r21, 0x00	; 0
 d54:	e0 f7       	brcc	.-8      	; 0xd4e <memset+0x4>
 d56:	08 95       	ret

00000d58 <_exit>:
 d58:	f8 94       	cli

00000d5a <__stop_program>:
 d5a:	ff cf       	rjmp	.-2      	; 0xd5a <__stop_program>
